ccopy_reg
_reconstructor
p0
(cperceptron
Perceptron
p1
c__builtin__
object
p2
Ntp3
Rp4
(dp5
S'neurons'
p6
(lp7
g0
(cneuron
Neuron
p8
g2
Ntp9
Rp10
(dp11
S's'
p12
I50
sS'm'
p13
I4096
sS'w'
p14
(lp15
I0
aI0
aI0
aI0
aI-1
aI-1
aI-1
aI-1
aI0
aI0
aI-1
aI-1
aI-1
aI-1
aI-1
aI-8
aI-1
aI-1
aI0
aI-9
aI-22
aI-8
aI-15
aI-7
aI-8
aI-4
aI0
aI-6
aI-2
aI0
aI-2
aI-9
aI-2
aI-4
aI2
aI-13
aI2
aI12
aI13
aI5
aI7
aI5
aI6
aI1
aI-25
aI-10
aI-1
aI-2
aI-10
aI-6
aI-6
aI-6
aI-6
aI-6
aI-3
aI0
aI-4
aI-4
aI-6
aI-6
aI-4
aI-5
aI-2
aI-2
aI0
aI0
aI0
aI0
aI-1
aI-1
aI-1
aI-1
aI0
aI0
aI-1
aI-1
aI-1
aI-1
aI-1
aI-1
aI7
aI-1
aI0
aI-9
aI-22
aI-8
aI-16
aI-10
aI-4
aI6
aI-1
aI-5
aI1
aI0
aI-1
aI5
aI-16
aI-1
aI-14
aI-12
aI-8
aI12
aI8
aI5
aI8
aI6
aI6
aI1
aI-22
aI-10
aI1
aI-2
aI-8
aI-6
aI-6
aI-6
aI-6
aI-6
aI-3
aI0
aI-4
aI-4
aI-6
aI-6
aI-4
aI-5
aI-2
aI-2
aI0
aI0
aI0
aI0
aI0
aI0
aI0
aI0
aI0
aI0
aI0
aI-1
aI-1
aI-1
aI-1
aI-1
aI-2
aI-3
aI-3
aI-16
aI-20
aI-8
aI0
aI0
aI5
aI4
aI1
aI-6
aI5
aI7
aI6
aI7
aI-11
aI-4
aI-12
aI-11
aI-11
aI-7
aI20
aI16
aI14
aI12
aI7
aI-4
aI-11
aI3
aI12
aI-2
aI-10
aI-6
aI-6
aI-6
aI-4
aI-3
aI-3
aI0
aI0
aI-3
aI-3
aI-5
aI-4
aI-5
aI-2
aI-2
aI0
aI0
aI0
aI1
aI0
aI0
aI0
aI0
aI0
aI0
aI0
aI0
aI0
aI-1
aI-1
aI-3
aI-3
aI-7
aI-7
aI-21
aI-25
aI-13
aI0
aI0
aI6
aI3
aI-11
aI-2
aI4
aI2
aI4
aI6
aI-3
aI-3
aI-10
aI-20
aI-20
aI-6
aI0
aI6
aI10
aI9
aI0
aI-16
aI-2
aI4
aI15
aI-8
aI-6
aI-6
aI-6
aI-6
aI0
aI0
aI-3
aI0
aI0
aI-3
aI-3
aI-3
aI-4
aI-2
aI-2
aI-2
aI0
aI0
aI0
aI1
aI1
aI0
aI0
aI0
aI0
aI0
aI0
aI0
aI1
aI0
aI0
aI-3
aI-1
aI0
aI-7
aI-19
aI-16
aI-15
aI-5
aI-7
aI-3
aI-5
aI2
aI7
aI2
aI1
aI0
aI-2
aI-1
aI14
aI2
aI-2
aI6
aI11
aI12
aI14
aI9
aI1
aI21
aI1
aI-10
aI2
aI17
aI2
aI1
aI-5
aI-2
aI-2
aI-2
aI-2
aI0
aI0
aI0
aI0
aI0
aI0
aI1
aI0
aI0
aI-3
aI0
aI0
aI0
aI1
aI1
aI0
aI0
aI0
aI0
aI0
aI0
aI1
aI0
aI-1
aI-1
aI-2
aI0
aI0
aI-8
aI-17
aI-19
aI-14
aI-15
aI-1
aI-7
aI-8
aI2
aI-2
aI-4
aI6
aI8
aI10
aI-8
aI11
aI-6
aI-8
aI0
aI11
aI10
aI-2
aI3
aI7
aI11
aI-2
aI-5
aI-1
aI14
aI-1
aI-2
aI-6
aI-6
aI-2
aI-2
aI-2
aI0
aI0
aI0
aI0
aI0
aI-3
aI-2
aI-5
aI-5
aI-5
aI-1
aI-1
aI-1
aI0
aI1
aI0
aI-1
aI-1
aI0
aI0
aI0
aI-1
aI-1
aI-1
aI-1
aI1
aI8
aI8
aI7
aI-10
aI-9
aI0
aI-5
aI10
aI12
aI13
aI15
aI4
aI4
aI7
aI15
aI4
aI-21
aI3
aI-5
aI-10
aI-4
aI5
aI3
aI3
aI2
aI-3
aI-4
aI-3
aI-2
aI13
aI8
aI-1
aI4
aI-6
aI-6
aI-6
aI-6
aI-6
aI-5
aI-2
aI-4
aI-4
aI-5
aI-5
aI-5
aI-6
aI-6
aI-6
aI-1
aI-1
aI-1
aI0
aI0
aI-1
aI-1
aI-1
aI0
aI0
aI-1
aI-1
aI-1
aI-1
aI-1
aI1
aI-10
aI0
aI0
aI-10
aI-9
aI-4
aI-2
aI8
aI8
aI4
aI13
aI6
aI-2
aI-2
aI-2
aI-9
aI-22
aI-4
aI-4
aI-6
aI-13
aI-6
aI-10
aI-5
aI-2
aI-9
aI-14
aI-6
aI-4
aI4
aI5
aI2
aI-5
aI-6
aI-6
aI-6
aI-6
aI-6
aI-5
aI-6
aI-4
aI-4
aI-6
aI-5
aI-5
aI-6
aI-6
aI-6
aI-1
aI-1
aI-1
aI-1
aI0
aI-1
aI-1
aI-1
aI-1
aI0
aI-1
aI-1
aI-2
aI-2
aI-2
aI0
aI6
aI3
aI-9
aI5
aI14
aI-17
aI8
aI-1
aI6
aI1
aI8
aI-11
aI-20
aI1
aI-1
aI17
aI-14
aI-12
aI-1
aI-3
aI-7
aI-14
aI-37
aI-14
aI-13
aI-19
aI-14
aI-6
aI-9
aI-25
aI-9
aI-25
aI-1
aI0
aI-8
aI-5
aI-10
aI-7
aI-2
aI-10
aI-6
aI-4
aI-6
aI-5
aI-5
aI-6
aI-6
aI-6
aI-1
aI-1
aI0
aI-1
aI0
aI-1
aI-1
aI-1
aI-1
aI-1
aI-1
aI-1
aI-1
aI-1
aI-1
aI-7
aI1
aI-1
aI11
aI-9
aI-11
aI15
aI19
aI10
aI20
aI-4
aI-16
aI-11
aI20
aI3
aI2
aI-25
aI-9
aI11
aI-9
aI-16
aI-37
aI-6
aI4
aI7
aI-17
aI26
aI-11
aI-45
aI-41
aI8
aI7
aI-1
aI2
aI-7
aI-4
aI-4
aI-3
aI-8
aI-5
aI-3
aI-6
aI-6
aI-6
aI-6
aI-4
aI-6
aI-6
aI-6
aI-1
aI-1
aI0
aI-1
aI0
aI-1
aI-1
aI-1
aI-1
aI-2
aI-2
aI-1
aI-1
aI-1
aI-1
aI-11
aI-2
aI5
aI-2
aI0
aI-2
aI-2
aI-3
aI3
aI-13
aI9
aI13
aI4
aI2
aI5
aI7
aI1
aI-20
aI0
aI-7
aI-22
aI-19
aI4
aI0
aI-13
aI-10
aI-11
aI-17
aI0
aI-28
aI-6
aI-6
aI-8
aI-8
aI-3
aI-7
aI-3
aI-5
aI-8
aI-10
aI-3
aI-6
aI-6
aI-6
aI-6
aI-4
aI-6
aI-6
aI-6
aI-1
aI-1
aI0
aI0
aI-1
aI-1
aI-1
aI-1
aI-1
aI-1
aI-1
aI-2
aI-2
aI-2
aI-2
aI19
aI1
aI3
aI1
aI-1
aI0
aI0
aI-7
aI-6
aI-2
aI-9
aI-13
aI-9
aI-6
aI5
aI-1
aI-5
aI-17
aI-3
aI4
aI-9
aI-17
aI-16
aI-2
aI-10
aI-15
aI-1
aI-8
aI-8
aI-10
aI-9
aI-21
aI-12
aI-10
aI-3
aI-11
aI-11
aI-2
aI-2
aI-8
aI-11
aI-6
aI-6
aI-6
aI-6
aI-4
aI-6
aI-6
aI-6
aI-1
aI-1
aI0
aI0
aI-1
aI-1
aI-1
aI-1
aI-2
aI-1
aI-1
aI-2
aI-2
aI-2
aI-1
aI17
aI3
aI6
aI1
aI-3
aI1
aI-2
aI-5
aI-10
aI7
aI-3
aI-1
aI5
aI1
aI-18
aI-13
aI-5
aI-5
aI-12
aI-22
aI-15
aI3
aI-2
aI-7
aI-3
aI-17
aI-9
aI-7
aI-7
aI-5
aI-15
aI-9
aI-27
aI-9
aI-6
aI-4
aI-11
aI-10
aI-3
aI-6
aI-11
aI-6
aI-6
aI-6
aI-6
aI-4
aI-6
aI-6
aI-6
aI-1
aI-1
aI0
aI0
aI-1
aI-1
aI-1
aI-1
aI-2
aI0
aI-1
aI-2
aI-2
aI-1
aI-1
aI21
aI4
aI1
aI-1
aI-2
aI0
aI-1
aI-7
aI-4
aI1
aI-12
aI8
aI20
aI11
aI12
aI15
aI-9
aI4
aI2
aI4
aI6
aI4
aI-1
aI-20
aI-11
aI-11
aI-8
aI-11
aI-10
aI-29
aI-13
aI-6
aI-14
aI0
aI-9
aI-6
aI-3
aI-7
aI-11
aI-5
aI-3
aI-6
aI-6
aI-6
aI-6
aI-4
aI-6
aI-6
aI-6
aI-1
aI-1
aI0
aI0
aI-1
aI-1
aI-1
aI-1
aI-2
aI0
aI-1
aI-2
aI-1
aI-1
aI-2
aI21
aI3
aI0
aI-2
aI-3
aI1
aI-2
aI-3
aI-3
aI0
aI15
aI7
aI4
aI-2
aI17
aI10
aI-13
aI0
aI0
aI12
aI3
aI-11
aI0
aI-5
aI-17
aI-15
aI-2
aI-6
aI0
aI-22
aI-12
aI-16
aI-11
aI3
aI-8
aI-10
aI-1
aI-8
aI-4
aI-4
aI-2
aI-6
aI-6
aI-6
aI-6
aI-4
aI-6
aI-6
aI-6
aI-4
aI-4
aI0
aI0
aI-4
aI-4
aI-4
aI-1
aI-1
aI-4
aI-5
aI-1
aI2
aI2
aI-1
aI10
aI-22
aI-26
aI9
aI4
aI-5
aI-3
aI4
aI12
aI0
aI-2
aI-2
aI1
aI3
aI-4
aI-2
aI-3
aI-3
aI-11
aI-8
aI-4
aI-5
aI-12
aI-4
aI-11
aI6
aI3
aI5
aI12
aI12
aI5
aI3
aI-7
aI18
aI-2
aI2
aI2
aI-6
aI2
aI0
aI-7
aI-10
aI-8
aI-6
aI1
aI1
aI-5
aI-1
aI-3
aI1
aI2
aI1
aI0
aI-1
aI-1
aI0
aI1
aI0
aI0
aI-1
aI-1
aI-1
aI2
aI-1
aI-30
aI-2
aI-14
aI-8
aI-4
aI-10
aI-2
aI1
aI-3
aI-1
aI-4
aI-4
aI-3
aI-4
aI-4
aI-4
aI-5
aI-8
aI-4
aI-1
aI-1
aI-2
aI-3
aI-10
aI-4
aI-3
aI1
aI2
aI3
aI1
aI4
aI1
aI0
aI1
aI-1
aI2
aI2
aI-2
aI-3
aI3
aI3
aI-3
aI1
aI0
aI1
aI0
aI0
aI-1
aI5
aI0
aI1
aI0
aI-1
aI0
aI0
aI-1
aI1
aI-1
aI0
aI-1
aI-1
aI-1
aI-1
aI-1
aI-28
aI-4
aI-26
aI-2
aI-7
aI-3
aI-2
aI0
aI-3
aI-3
aI-4
aI-4
aI-9
aI-2
aI-4
aI-7
aI-6
aI-6
aI-4
aI-1
aI-2
aI-2
aI-4
aI-4
aI-4
aI-3
aI-2
aI3
aI4
aI-1
aI3
aI3
aI-1
aI1
aI2
aI3
aI1
aI2
aI1
aI7
aI2
aI-2
aI2
aI1
aI1
aI0
aI-3
aI8
aI9
aI-5
aI-5
aI1
aI0
aI0
aI0
aI-1
aI1
aI0
aI0
aI-1
aI-1
aI-1
aI-1
aI-1
aI-34
aI-4
aI-17
aI-1
aI-10
aI-3
aI-1
aI2
aI-3
aI-3
aI-4
aI-3
aI-1
aI-3
aI-1
aI-12
aI-9
aI-6
aI-3
aI1
aI-1
aI1
aI0
aI-4
aI-4
aI0
aI1
aI4
aI5
aI-1
aI3
aI0
aI5
aI-1
aI3
aI0
aI1
aI3
aI4
aI9
aI5
aI-1
aI-3
aI1
aI1
aI0
aI-3
aI10
aI9
aI-5
aI-5
aI0
aI1
aI0
aI0
aI-1
aI0
aI0
aI-4
aI-1
aI-1
aI-1
aI-1
aI-1
aI-17
aI-3
aI-18
aI-6
aI-4
aI-3
aI-3
aI-3
aI0
aI-4
aI-3
aI1
aI-5
aI7
aI-3
aI-14
aI0
aI2
aI-1
aI-4
aI3
aI1
aI2
aI-9
aI-4
aI-3
aI-1
aI5
aI9
aI-8
aI6
aI5
aI3
aI4
aI0
aI1
aI1
aI3
aI1
aI5
aI5
aI-1
aI-3
aI1
aI1
aI0
aI-1
aI8
aI7
aI-5
aI-5
aI0
aI0
aI0
aI0
aI-1
aI0
aI-5
aI-1
aI-1
aI-1
aI-1
aI-1
aI-1
aI-18
aI-2
aI-2
aI1
aI-10
aI-3
aI-1
aI-1
aI-2
aI-2
aI0
aI2
aI-2
aI-4
aI0
aI0
aI-2
aI-3
aI-3
aI-6
aI5
aI-4
aI1
aI5
aI0
aI2
aI2
aI3
aI8
aI1
aI6
aI2
aI-6
aI11
aI1
aI-1
aI3
aI4
aI5
aI6
aI2
aI-3
aI-3
aI1
aI4
aI1
aI-6
aI9
aI7
aI-5
aI-5
aI0
aI0
aI1
aI0
aI-1
aI-1
aI0
aI-1
aI0
aI-1
aI-1
aI-1
aI-1
aI-11
aI0
aI1
aI0
aI-3
aI-4
aI-3
aI-1
aI-1
aI2
aI-3
aI1
aI0
aI2
aI-8
aI-9
aI-10
aI2
aI-6
aI-3
aI4
aI5
aI5
aI2
aI3
aI-2
aI2
aI6
aI6
aI-1
aI3
aI1
aI2
aI12
aI2
aI7
aI1
aI3
aI4
aI8
aI1
aI-3
aI1
aI1
aI1
aI5
aI-3
aI9
aI7
aI-5
aI-5
aI0
aI0
aI0
aI1
aI-1
aI-1
aI-1
aI-1
aI0
aI0
aI0
aI-1
aI-1
aI-4
aI-3
aI-2
aI-10
aI-3
aI-1
aI1
aI2
aI0
aI5
aI3
aI-3
aI1
aI-1
aI-15
aI9
aI-9
aI-3
aI-8
aI-1
aI15
aI3
aI-3
aI-3
aI-4
aI4
aI5
aI8
aI6
aI-2
aI3
aI1
aI0
aI19
aI3
aI2
aI-3
aI4
aI4
aI9
aI4
aI-2
aI2
aI2
aI2
aI1
aI-2
aI9
aI7
aI-5
aI-5
aI-1
aI0
aI0
aI0
aI0
aI-1
aI0
aI-1
aI0
aI-1
aI-1
aI0
aI-1
aI20
aI-4
aI0
aI-2
aI-2
aI-1
aI-3
aI3
aI4
aI7
aI-2
aI2
aI4
aI0
aI-17
aI0
aI0
aI1
aI-3
aI-10
aI2
aI-4
aI-2
aI4
aI-3
aI0
aI4
aI6
aI5
aI-2
aI4
aI-1
aI-1
aI28
aI4
aI2
aI5
aI4
aI-1
aI8
aI4
aI1
aI2
aI2
aI5
aI-1
aI2
aI10
aI8
aI-5
aI-5
aI-1
aI-1
aI0
aI0
aI0
aI0
aI-1
aI0
aI-1
aI0
aI0
aI0
aI0
aI17
aI-1
aI1
aI5
aI-1
aI11
aI8
aI6
aI4
aI7
aI3
aI3
aI1
aI13
aI-2
aI-4
aI-8
aI-6
aI-12
aI-6
aI-1
aI-3
aI0
aI2
aI-5
aI-4
aI-2
aI7
aI2
aI-3
aI2
aI0
aI-2
aI26
aI6
aI5
aI6
aI5
aI6
aI10
aI8
aI3
aI4
aI2
aI5
aI-1
aI2
aI9
aI7
aI-5
aI-5
aI-1
aI-1
aI1
aI0
aI0
aI0
aI-1
aI-1
aI0
aI-1
aI0
aI0
aI0
aI36
aI-1
aI3
aI10
aI4
aI16
aI9
aI7
aI10
aI10
aI3
aI-8
aI-5
aI1
aI-17
aI-2
aI-13
aI-4
aI-5
aI-14
aI-5
aI-2
aI-4
aI-1
aI-4
aI-4
aI-4
aI2
aI6
aI-1
aI3
aI-5
aI-3
aI18
aI4
aI4
aI7
aI5
aI5
aI9
aI9
aI3
aI4
aI5
aI5
aI-5
aI-5
aI8
aI7
aI-5
aI-5
aI-1
aI-1
aI1
aI0
aI1
aI1
aI1
aI1
aI-1
aI0
aI0
aI0
aI0
aI33
aI15
aI11
aI19
aI15
aI22
aI14
aI23
aI19
aI12
aI14
aI7
aI7
aI-3
aI-2
aI-1
aI-11
aI-4
aI-9
aI-17
aI-14
aI-10
aI-17
aI-4
aI-5
aI-3
aI-2
aI5
aI2
aI0
aI0
aI0
aI-5
aI18
aI4
aI7
aI7
aI7
aI7
aI10
aI8
aI3
aI6
aI6
aI4
aI-2
aI-1
aI7
aI6
aI-5
aI-5
aI2
aI-1
aI0
aI0
aI1
aI1
aI1
aI1
aI0
aI0
aI0
aI0
aI0
aI41
aI7
aI17
aI19
aI20
aI16
aI15
aI18
aI19
aI18
aI19
aI13
aI16
aI10
aI3
aI2
aI-7
aI-6
aI-6
aI-18
aI-7
aI-12
aI-5
aI-4
aI-6
aI-5
aI-3
aI4
aI2
aI-5
aI7
aI-4
aI-3
aI31
aI4
aI4
aI6
aI7
aI10
aI9
aI11
aI3
aI0
aI4
aI9
aI-1
aI-4
aI7
aI6
aI-3
aI-3
aI4
aI1
aI0
aI0
aI0
aI0
aI-3
aI-4
aI1
aI0
aI1
aI0
aI1
aI44
aI4
aI1
aI6
aI7
aI19
aI10
aI13
aI13
aI9
aI8
aI5
aI-1
aI-5
aI-10
aI5
aI-2
aI-4
aI-14
aI-19
aI-6
aI-6
aI-5
aI-3
aI-6
aI-5
aI-4
aI2
aI3
aI-4
aI5
aI-2
aI0
aI25
aI4
aI4
aI4
aI4
aI8
aI9
aI7
aI2
aI0
aI8
aI8
aI-2
aI-5
aI6
aI4
aI-4
aI-4
aI3
aI0
aI0
aI0
aI0
aI0
aI0
aI0
aI0
aI0
aI0
aI0
aI0
aI50
aI2
aI0
aI6
aI13
aI10
aI11
aI15
aI13
aI6
aI4
aI5
aI-2
aI4
aI4
aI5
aI0
aI-2
aI-5
aI-8
aI-1
aI-5
aI-15
aI-6
aI-6
aI-5
aI-4
aI2
aI2
aI-5
aI0
aI-5
aI2
aI17
aI4
aI5
aI4
aI4
aI7
aI10
aI7
aI2
aI0
aI8
aI7
aI-2
aI-5
aI6
aI6
aI0
aI0
aI3
aI0
aI-1
aI-1
aI0
aI0
aI-1
aI-1
aI-1
aI-1
aI-1
aI-1
aI0
aI45
aI2
aI3
aI3
aI9
aI10
aI8
aI4
aI5
aI5
aI3
aI3
aI-4
aI-4
aI1
aI3
aI-4
aI-4
aI-6
aI-21
aI-5
aI-5
aI-6
aI-6
aI-6
aI-5
aI-4
aI3
aI2
aI-5
aI0
aI-1
aI-3
aI9
aI4
aI5
aI5
aI4
aI6
aI8
aI8
aI-1
aI2
aI3
aI6
aI-2
aI-5
aI6
aI6
aI3
aI3
aI7
aI-2
aI2
aI3
aI9
aI5
aI-3
aI-3
aI-3
aI-3
aI3
aI1
aI2
aI44
aI-2
aI0
aI1
aI20
aI14
aI3
aI5
aI5
aI0
aI0
aI2
aI0
aI1
aI-6
aI-2
aI-3
aI-6
aI-6
aI-6
aI-16
aI-6
aI-11
aI-5
aI-6
aI-5
aI-4
aI2
aI2
aI-5
aI0
aI-1
aI-5
aI23
aI1
aI2
aI-1
aI-2
aI-1
aI1
aI5
aI5
aI-6
aI0
aI2
aI-9
aI-6
aI-5
aI1
aI-1
aI1
aI5
aI2
aI3
aI2
aI6
aI4
aI0
aI0
aI-5
aI-5
aI-2
aI-2
aI-4
aI29
aI-1
aI-3
aI13
aI8
aI16
aI15
aI9
aI8
aI-3
aI9
aI-1
aI-1
aI-5
aI-6
aI-7
aI-4
aI-5
aI-4
aI-19
aI-15
aI-6
aI-13
aI-11
aI-8
aI-4
aI-4
aI2
aI3
aI-4
aI2
aI-2
aI-4
aI21
aI-1
aI-2
aI-5
aI6
aI3
aI0
aI6
aI5
aI-1
aI1
aI2
aI3
aI-7
aI1
aI-1
aI-1
aI-1
aI5
aI2
aI3
aI3
aI3
aI5
aI-2
aI1
aI-4
aI-1
aI-4
aI-1
aI0
aI19
aI3
aI2
aI17
aI15
aI10
aI6
aI6
aI6
aI0
aI9
aI0
aI1
aI0
aI-1
aI-2
aI-5
aI-14
aI-5
aI-18
aI-4
aI-6
aI-6
aI-11
aI-8
aI-4
aI-3
aI3
aI3
aI-3
aI3
aI-3
aI-4
aI17
aI10
aI5
aI4
aI8
aI7
aI6
aI3
aI1
aI1
aI1
aI4
aI5
aI-4
aI0
aI-1
aI-5
aI-5
aI2
aI2
aI4
aI4
aI4
aI5
aI5
aI2
aI1
aI0
aI0
aI0
aI0
aI22
aI4
aI4
aI16
aI16
aI14
aI6
aI8
aI8
aI-2
aI9
aI1
aI-2
aI-3
aI-2
aI-7
aI-5
aI-6
aI-4
aI-23
aI-6
aI-6
aI-6
aI-11
aI-8
aI-4
aI-3
aI3
aI3
aI-3
aI4
aI-3
aI-3
aI13
aI4
aI4
aI5
aI11
aI7
aI1
aI3
aI1
aI1
aI1
aI4
aI5
aI-1
aI-1
aI-1
aI-3
aI-4
aI-2
aI3
aI5
aI4
aI4
aI-2
aI5
aI-2
aI1
aI1
aI-3
aI0
aI-3
aI25
aI7
aI7
aI19
aI17
aI14
aI13
aI11
aI10
aI-1
aI12
aI-7
aI-1
aI-2
aI-6
aI-7
aI-5
aI-14
aI-13
aI-32
aI-10
aI-6
aI-10
aI-10
aI-6
aI-4
aI-3
aI3
aI4
aI3
aI2
aI1
aI-1
aI14
aI4
aI10
aI10
aI10
aI3
aI-7
aI-1
aI1
aI1
aI1
aI4
aI0
aI0
aI-1
aI-5
aI-2
aI-8
aI3
aI3
aI4
aI4
aI-1
aI8
aI1
aI2
aI2
aI-1
aI2
aI2
aI1
aI26
aI8
aI4
aI16
aI16
aI21
aI14
aI8
aI10
aI-1
aI4
aI-2
aI1
aI-1
aI-2
aI-6
aI-5
aI-11
aI-13
aI-27
aI-5
aI-4
aI-6
aI-6
aI-6
aI-4
aI-3
aI4
aI9
aI-1
aI5
aI-5
aI-1
aI10
aI7
aI10
aI11
aI4
aI4
aI-11
aI4
aI2
aI1
aI1
aI4
aI6
aI-4
aI0
aI4
aI-2
aI-2
aI3
aI3
aI4
aI4
aI5
aI6
aI3
aI5
aI1
aI-2
aI1
aI-4
aI-1
aI30
aI10
aI4
aI19
aI18
aI20
aI14
aI8
aI11
aI-1
aI1
aI-2
aI0
aI-6
aI-2
aI-2
aI-2
aI-2
aI-11
aI-25
aI-17
aI-7
aI-6
aI-6
aI-3
aI-4
aI-2
aI7
aI8
aI0
aI6
aI-2
aI-4
aI6
aI7
aI10
aI4
aI4
aI4
aI8
aI9
aI3
aI1
aI1
aI-1
aI4
aI0
aI4
aI4
aI-3
aI-3
aI2
aI2
aI3
aI4
aI2
aI3
aI-1
aI6
aI0
aI0
aI-2
aI-3
aI0
aI30
aI9
aI8
aI16
aI16
aI14
aI10
aI16
aI13
aI5
aI3
aI-23
aI0
aI-6
aI-10
aI-12
aI-1
aI-7
aI-8
aI-15
aI-18
aI-16
aI-6
aI-6
aI-6
aI-4
aI0
aI6
aI7
aI-3
aI4
aI-3
aI-4
aI9
aI1
aI4
aI4
aI6
aI2
aI13
aI0
aI-3
aI-3
aI-2
aI2
aI5
aI0
aI4
aI4
aI-3
aI-3
aI2
aI2
aI3
aI3
aI2
aI3
aI2
aI-1
aI-3
aI1
aI-2
aI-1
aI-4
aI30
aI8
aI8
aI16
aI13
aI14
aI12
aI19
aI10
aI4
aI9
aI-3
aI-1
aI-6
aI-12
aI-10
aI0
aI-32
aI-7
aI-10
aI-23
aI-6
aI-6
aI-6
aI-6
aI1
aI1
aI8
aI10
aI3
aI1
aI-4
aI-5
aI16
aI1
aI4
aI10
aI6
aI2
aI5
aI-6
aI-3
aI-2
aI1
aI1
aI3
aI0
aI4
aI4
aI-5
aI-5
aI3
aI3
aI3
aI3
aI3
aI3
aI-4
aI1
aI-4
aI-4
aI-2
aI-2
aI-7
aI29
aI-1
aI6
aI13
aI10
aI14
aI13
aI16
aI10
aI6
aI16
aI5
aI5
aI-11
aI-9
aI-4
aI5
aI0
aI-5
aI-3
aI0
aI-10
aI-6
aI-8
aI-1
aI-2
aI-1
aI8
aI10
aI3
aI2
aI-1
aI-4
aI14
aI2
aI4
aI5
aI5
aI2
aI-5
aI-5
aI-2
aI-2
aI1
aI1
aI4
aI1
aI4
aI4
aI-5
aI-5
aI3
aI3
aI3
aI5
aI2
aI3
aI4
aI-3
aI0
aI-5
aI-3
aI-7
aI-7
aI30
aI2
aI4
aI12
aI7
aI10
aI10
aI13
aI10
aI3
aI8
aI3
aI3
aI-2
aI4
aI-5
aI-5
aI-7
aI2
aI-4
aI-26
aI4
aI-6
aI-8
aI-4
aI-3
aI0
aI4
aI13
aI0
aI2
aI-4
aI-3
aI15
aI3
aI5
aI-5
aI-1
aI2
aI-5
aI-3
aI-2
aI-2
aI1
aI4
aI4
aI1
aI0
aI4
aI-5
aI-5
aI1
aI2
aI4
aI3
aI2
aI3
aI-3
aI-5
aI-6
aI-6
aI-3
aI-5
aI-4
aI30
aI1
aI1
aI10
aI8
aI13
aI11
aI9
aI6
aI0
aI9
aI-3
aI3
aI1
aI-7
aI-1
aI-2
aI-3
aI-5
aI-3
aI-17
aI-3
aI1
aI-6
aI-3
aI-3
aI-1
aI8
aI9
aI2
aI5
aI-3
aI-1
aI18
aI2
aI4
aI6
aI1
aI-1
aI-4
aI0
aI-2
aI-3
aI-8
aI0
aI0
aI-1
aI7
aI3
aI-5
aI-11
aI1
aI2
aI3
aI3
aI-4
aI3
aI-10
aI-5
aI-3
aI-4
aI-6
aI-4
aI-3
aI19
aI-5
aI-2
aI8
aI4
aI11
aI10
aI7
aI5
aI0
aI6
aI2
aI3
aI0
aI-3
aI-7
aI-9
aI-8
aI-5
aI-18
aI-6
aI0
aI-5
aI-6
aI-2
aI-1
aI-1
aI8
aI11
aI3
aI3
aI-3
aI-5
aI-1
aI6
aI6
aI6
aI4
aI-5
aI0
aI1
aI-4
aI-3
aI-8
aI-1
aI8
aI1
aI5
aI5
aI-5
aI-5
aI-5
aI2
aI3
aI3
aI1
aI-6
aI-1
aI-3
aI-3
aI-7
aI-3
aI-5
aI-8
aI10
aI1
aI-2
aI6
aI2
aI8
aI8
aI6
aI8
aI-3
aI8
aI2
aI2
aI-2
aI-1
aI-14
aI0
aI-10
aI-5
aI-21
aI-6
aI-5
aI-7
aI-1
aI-3
aI0
aI0
aI6
aI16
aI4
aI4
aI-2
aI-13
aI-4
aI5
aI5
aI5
aI-2
aI-11
aI1
aI0
aI-4
aI-4
aI-12
aI-5
aI0
aI-3
aI1
aI1
aI-5
aI-5
aI2
aI1
aI3
aI1
aI1
aI0
aI-1
aI-1
aI-7
aI-8
aI0
aI-2
aI-7
aI5
aI-1
aI-2
aI7
aI0
aI7
aI9
aI5
aI7
aI-3
aI7
aI3
aI4
aI-2
aI-2
aI-5
aI-10
aI-6
aI-4
aI-6
aI-6
aI-5
aI-6
aI-5
aI-5
aI-1
aI1
aI6
aI8
aI1
aI2
aI-10
aI-4
aI-16
aI5
aI5
aI9
aI-3
aI-5
aI-6
aI-2
aI-4
aI-4
aI-8
aI-3
aI6
aI3
aI7
aI7
aI-1
aI0
aI5
aI1
aI3
aI2
aI0
aI0
aI-5
aI-1
aI-4
aI-3
aI-4
aI-4
aI-3
aI1
aI-10
aI-1
aI4
aI2
aI9
aI9
aI4
aI5
aI-7
aI7
aI3
aI2
aI-4
aI-13
aI-1
aI-9
aI-5
aI-8
aI-2
aI-1
aI-5
aI-8
aI-6
aI-5
aI-4
aI-2
aI5
aI6
aI-1
aI2
aI-4
aI-2
aI-5
aI5
aI5
aI4
aI0
aI-1
aI-2
aI2
aI-4
aI-4
aI-4
aI-1
aI6
aI3
aI7
aI7
aI-3
aI0
aI4
aI0
aI3
aI0
aI2
aI-2
aI-2
aI-3
aI-10
aI-5
aI-6
aI-9
aI-9
aI9
aI3
aI4
aI-1
aI-1
aI4
aI6
aI0
aI0
aI-6
aI8
aI-5
aI-6
aI-18
aI2
aI-24
aI-5
aI-8
aI-11
aI-3
aI-5
aI-4
aI-8
aI-5
aI-5
aI5
aI4
aI0
aI-1
aI-1
aI-2
aI-2
aI-3
aI-6
aI1
aI0
aI-2
aI-2
aI-3
aI-4
aI-1
aI-6
aI-9
aI-9
aI-1
aI6
aI2
aI5
aI5
aI-5
aI-5
aI-2
aI-6
aI3
aI-1
aI-1
aI-3
aI-12
aI-11
aI-13
aI-9
aI-3
aI0
aI-3
aI9
aI-7
aI5
aI0
aI3
aI8
aI4
aI5
aI1
aI6
aI-5
aI4
aI-4
aI4
aI5
aI-2
aI3
aI-8
aI-7
aI-3
aI0
aI-5
aI-5
aI-8
aI-5
aI-3
aI5
aI-3
aI1
aI3
aI-5
aI-6
aI3
aI8
aI3
aI2
aI-6
aI-8
aI-12
aI-11
aI-15
aI-5
aI-4
aI-7
aI-7
aI-3
aI7
aI6
aI3
aI-7
aI-7
aI-7
aI-5
aI-2
aI-6
aI-6
aI-6
aI-7
aI-7
aI-7
aI-7
aI-7
aI-8
aI-8
aI5
aI-6
aI-4
aI3
aI-5
aI2
aI-4
aI3
aI5
aI6
aI3
aI-6
aI-4
aI-9
aI-4
aI4
aI-5
aI-4
aI-6
aI-3
aI-8
aI-7
aI-5
aI4
aI3
aI1
aI1
aI-3
aI4
aI3
aI6
aI-6
aI9
aI-13
aI-7
aI-7
aI-8
aI-4
aI-8
aI-3
aI-6
aI-2
aI-3
aI-4
aI-4
aI-3
aI-4
aI-4
aI-4
aI-7
aI-7
aI-7
aI-5
aI-2
aI-6
aI-6
aI-6
aI-7
aI-5
aI-7
aI-8
aI-8
aI-8
aI-8
aI-1
aI3
aI-2
aI4
aI1
aI5
aI-3
aI3
aI3
aI4
aI3
aI1
aI-6
aI1
aI-5
aI-11
aI-11
aI-2
aI-1
aI-11
aI-12
aI-1
aI-3
aI1
aI-2
aI0
aI1
aI4
aI-2
aI-1
aI8
aI5
aI-13
aI-13
aI-4
aI-8
aI-8
aI-4
aI-7
aI-4
aI-5
aI-2
aI-3
aI-4
aI-4
aI-3
aI-4
aI-4
aI-4
aI-7
aI-7
aI-7
aI-5
aI-2
aI-3
aI-6
aI-6
aI-8
aI-4
aI-8
aI-8
aI-7
aI-7
aI-8
aI4
aI-14
aI-4
aI-4
aI1
aI-1
aI-5
aI-3
aI2
aI1
aI3
aI4
aI3
aI-4
aI3
aI-4
aI-4
aI-8
aI-10
aI-2
aI-1
aI-5
aI-1
aI-3
aI-1
aI1
aI-3
aI0
aI-1
aI-6
aI-1
aI2
aI-8
aI-27
aI-5
aI-5
aI-8
aI-7
aI-8
aI-6
aI-4
aI-2
aI-3
aI-4
aI-4
aI-3
aI-4
aI-4
aI-4
aI-7
aI-7
aI-6
aI-4
aI-2
aI-2
aI-6
aI-6
aI-6
aI-4
aI-7
aI-7
aI-7
aI-7
aI-7
aI1
aI-7
aI-4
aI-1
aI3
aI-4
aI-5
aI1
aI-6
aI1
aI1
aI3
aI3
aI3
aI1
aI-5
aI-3
aI-10
aI-6
aI0
aI-1
aI-1
aI-3
aI-4
aI-3
aI6
aI-1
aI1
aI4
aI-3
aI-2
aI4
aI-2
aI-24
aI-8
aI-4
aI-7
aI-8
aI-4
aI-8
aI-4
aI-2
aI-3
aI-4
aI-4
aI-3
aI-4
aI-4
aI-4
aI-7
aI-6
aI-6
aI-6
aI-1
aI-3
aI-6
aI-6
aI-5
aI-6
aI-8
aI-8
aI-7
aI-8
aI-8
aI15
aI6
aI-3
aI3
aI-10
aI1
aI3
aI-10
aI-16
aI-8
aI1
aI1
aI1
aI1
aI1
aI1
aI-3
aI-4
aI-3
aI2
aI-2
aI-4
aI0
aI1
aI3
aI-14
aI-28
aI-6
aI-7
aI3
aI-5
aI7
aI-1
aI-23
aI-8
aI-4
aI-8
aI-7
aI-3
aI-4
aI-6
aI-2
aI-3
aI-4
aI-4
aI-3
aI-4
aI-4
aI-4
aI-6
aI-6
aI-3
aI-3
aI-1
aI-3
aI-6
aI-6
aI-6
aI-7
aI-7
aI-7
aI-8
aI-8
aI-8
aI-6
aI4
aI5
aI6
aI-6
aI6
aI-3
aI-4
aI-2
aI-28
aI1
aI1
aI1
aI1
aI1
aI1
aI-5
aI-3
aI-3
aI-4
aI-4
aI-2
aI0
aI-4
aI-15
aI-2
aI4
aI-6
aI-10
aI-22
aI1
aI-15
aI-11
aI-14
aI-4
aI-8
aI-8
aI-4
aI-3
aI-2
aI-5
aI-2
aI-3
aI-4
aI-4
aI-3
aI-4
aI-4
aI-4
aI-6
aI-6
aI-3
aI-3
aI0
aI-3
aI-6
aI-6
aI-6
aI-7
aI-7
aI-6
aI-7
aI-7
aI-7
aI-11
aI13
aI7
aI5
aI12
aI3
aI7
aI9
aI-18
aI6
aI2
aI0
aI2
aI10
aI5
aI-2
aI0
aI8
aI4
aI9
aI10
aI-3
aI9
aI-6
aI8
aI-10
aI12
aI-16
aI-8
aI-3
aI8
aI-5
aI12
aI-6
aI-4
aI-8
aI-4
aI-3
aI-7
aI-7
aI-1
aI-2
aI-2
aI-4
aI-4
aI-4
aI-4
aI-4
aI-4
aI-3
aI-3
aI-3
aI-3
aI0
aI-2
aI-6
aI-5
aI-4
aI-3
aI-6
aI-6
aI-6
aI-6
aI-6
aI-13
aI2
aI2
aI14
aI15
aI12
aI-5
aI11
aI2
aI5
aI3
aI6
aI10
aI3
aI0
aI-14
aI-10
aI-6
aI-5
aI13
aI12
aI5
aI5
aI11
aI8
aI2
aI-3
aI-14
aI4
aI14
aI7
aI4
aI4
aI-1
aI-3
aI-3
aI-3
aI-3
aI-3
aI0
aI-1
aI-2
aI-2
aI-4
aI-4
aI-4
aI-3
aI-3
aI-3
aI-4
aI-4
aI-3
aI-3
aI0
aI0
aI-6
aI-5
aI-4
aI-4
aI-6
aI-6
aI-6
aI-6
aI-6
aI2
aI-7
aI-6
aI8
aI18
aI14
aI3
aI2
aI13
aI10
aI4
aI4
aI14
aI3
aI-6
aI2
aI6
aI-19
aI12
aI14
aI6
aI3
aI12
aI10
aI13
aI7
aI-22
aI3
aI2
aI7
aI7
aI-1
aI2
aI16
aI-3
aI-3
aI-3
aI-3
aI-3
aI0
aI-1
aI-2
aI-2
aI-4
aI-4
aI-4
aI-4
aI-3
aI-3
aI-2
aI-2
aI-1
aI-2
aI-1
aI-1
aI-1
aI-1
aI-1
aI-1
aI0
aI-1
aI-1
aI-6
aI-7
aI8
aI-5
aI-13
aI-11
aI10
aI3
aI-1
aI-14
aI8
aI15
aI16
aI12
aI13
aI14
aI10
aI6
aI16
aI-29
aI0
aI-5
aI-7
aI-4
aI2
aI17
aI8
aI-15
aI-27
aI6
aI2
aI-6
aI-4
aI-10
aI0
aI9
aI-3
aI-3
aI-3
aI-3
aI-2
aI0
aI-1
aI-1
aI-1
aI-3
aI-3
aI-2
aI-2
aI-3
aI-3
aI-2
aI-2
aI-1
aI-2
aI-2
aI-1
aI-1
aI-1
aI-1
aI-1
aI0
aI0
aI-1
aI0
aI-2
aI12
aI-3
aI-4
aI-11
aI11
aI-4
aI0
aI-10
aI-9
aI-12
aI15
aI10
aI15
aI16
aI10
aI-1
aI-2
aI-16
aI1
aI3
aI-2
aI2
aI-7
aI-6
aI6
aI0
aI-13
aI20
aI9
aI17
aI10
aI3
aI-7
aI17
aI-3
aI-3
aI-3
aI-3
aI-2
aI0
aI-1
aI-1
aI-1
aI-3
aI-3
aI-2
aI-2
aI-3
aI-3
aI-5
aI-5
aI-2
aI-2
aI-2
aI-1
aI-1
aI-1
aI-1
aI-1
aI-3
aI-3
aI-7
aI-7
aI-7
aI-8
aI0
aI6
aI18
aI2
aI-10
aI-9
aI-5
aI-8
aI1
aI3
aI1
aI9
aI10
aI8
aI-2
aI-6
aI-13
aI-24
aI-22
aI-37
aI-34
aI-6
aI25
aI14
aI6
aI1
aI-14
aI-16
aI-14
aI-8
aI-5
aI8
aI14
aI-4
aI-4
aI-4
aI-3
aI-2
aI0
aI-1
aI-1
aI-1
aI-3
aI-3
aI-2
aI-2
aI-3
aI-3
aI-5
aI-5
aI-2
aI-2
aI-2
aI-1
aI0
aI-1
aI-1
aI-1
aI-3
aI-5
aI-7
aI-7
aI-6
aI2
aI1
aI6
aI9
aI17
aI2
aI-11
aI-6
aI-6
aI10
aI8
aI14
aI12
aI4
aI5
aI-10
aI1
aI-28
aI-30
aI-25
aI-36
aI-25
aI-18
aI18
aI21
aI16
aI8
aI-19
aI-13
aI-7
aI-3
aI-2
aI1
aI5
aI-4
aI-4
aI-4
aI-3
aI-2
aI0
aI-1
aI-1
aI-1
aI-3
aI-3
aI-2
aI-2
aI-3
aI-3
aI-5
aI-5
aI-2
aI-2
aI-4
aI-4
aI-4
aI-3
aI-4
aI-4
aI-5
aI-5
aI-7
aI-7
aI-7
aI1
aI-2
aI5
aI8
aI15
aI4
aI2
aI-9
aI-4
aI-6
aI-1
aI-1
aI2
aI8
aI15
aI0
aI-23
aI-13
aI5
aI-1
aI3
aI5
aI11
aI4
aI-1
aI11
aI7
aI-19
aI-3
aI-9
aI-15
aI-13
aI-8
aI1
aI-4
aI-3
aI-4
aI-4
aI-4
aI0
aI-1
aI-1
aI-1
aI-3
aI-3
aI-2
aI-2
aI-3
aI-3
aI-5
aI-5
aI-2
aI-2
aI-4
aI-4
aI-4
aI-4
aI-4
aI-4
aI-5
aI-5
aI-7
aI-7
aI-7
aI-8
aI9
aI11
aI10
aI9
aI4
aI8
aI-9
aI1
aI-1
aI1
aI0
aI2
aI15
aI13
aI-8
aI-19
aI2
aI5
aI8
aI3
aI10
aI11
aI4
aI5
aI21
aI19
aI-19
aI-3
aI-13
aI-15
aI-14
aI-9
aI-6
aI-4
aI-4
aI-4
aI-4
aI-4
aI0
aI-1
aI-1
aI-1
aI-3
aI-3
aI-2
aI-2
aI-3
aI-3
asbag0
(g8
g2
Ntp16
Rp17
(dp18
g12
I50
sg13
I4096
sg14
(lp19
I-1
aI-1
aI-1
aI-1
aI-1
aI-1
aI-1
aI-1
aI-1
aI-1
aI-1
aI-1
aI-1
aI-1
aI-1
aI5
aI-9
aI-9
aI-2
aI-1
aI-6
aI-10
aI2
aI2
aI2
aI2
aI-6
aI-4
aI-3
aI-10
aI-8
aI1
aI6
aI9
aI9
aI8
aI6
aI8
aI9
aI8
aI7
aI11
aI2
aI8
aI5
aI-6
aI6
aI3
aI-8
aI0
aI0
aI0
aI0
aI0
aI0
aI0
aI0
aI0
aI0
aI0
aI0
aI0
aI0
aI0
aI-1
aI-1
aI-1
aI-1
aI-1
aI-1
aI-1
aI-1
aI-1
aI-1
aI-1
aI-1
aI-1
aI-1
aI-1
aI5
aI-4
aI-9
aI-2
aI-1
aI-6
aI-10
aI0
aI0
aI-5
aI-5
aI-4
aI-6
aI-9
aI-10
aI-10
aI0
aI8
aI9
aI8
aI12
aI7
aI10
aI14
aI13
aI5
aI11
aI2
aI8
aI-2
aI-6
aI6
aI3
aI-4
aI0
aI0
aI0
aI0
aI0
aI0
aI0
aI0
aI0
aI0
aI0
aI0
aI0
aI0
aI0
aI-1
aI-1
aI-1
aI-1
aI-1
aI-1
aI-1
aI-1
aI-1
aI-1
aI-1
aI-1
aI-1
aI-1
aI-1
aI8
aI4
aI2
aI2
aI3
aI-1
aI-5
aI-4
aI-4
aI3
aI1
aI5
aI5
aI2
aI-1
aI-5
aI5
aI5
aI4
aI-2
aI14
aI9
aI8
aI2
aI0
aI4
aI8
aI6
aI14
aI-4
aI-12
aI5
aI3
aI-7
aI0
aI0
aI0
aI0
aI0
aI0
aI0
aI0
aI0
aI0
aI0
aI0
aI0
aI0
aI0
aI-1
aI-1
aI-1
aI1
aI-1
aI-1
aI-1
aI-1
aI-1
aI-1
aI-1
aI-1
aI1
aI-1
aI-1
aI3
aI2
aI2
aI2
aI2
aI-3
aI-5
aI-4
aI-4
aI5
aI1
aI1
aI-4
aI-5
aI-3
aI-1
aI-5
aI3
aI5
aI0
aI10
aI11
aI12
aI7
aI5
aI1
aI2
aI11
aI16
aI-8
aI-12
aI-1
aI-1
aI-3
aI0
aI0
aI0
aI0
aI0
aI0
aI0
aI0
aI0
aI0
aI0
aI0
aI0
aI0
aI0
aI-1
aI-1
aI-1
aI1
aI1
aI-1
aI-1
aI-1
aI-1
aI-1
aI-1
aI-1
aI1
aI-1
aI-1
aI-1
aI0
aI0
aI0
aI-4
aI-3
aI-4
aI-1
aI-4
aI2
aI-7
aI-5
aI-2
aI-1
aI-3
aI-1
aI-2
aI6
aI2
aI0
aI0
aI0
aI-5
aI5
aI-1
aI-5
aI4
aI2
aI9
aI-5
aI-12
aI2
aI-2
aI-3
aI0
aI0
aI0
aI0
aI0
aI0
aI0
aI0
aI0
aI0
aI0
aI0
aI0
aI0
aI0
aI-1
aI-1
aI-1
aI1
aI1
aI-1
aI-1
aI-1
aI-1
aI-1
aI-1
aI1
aI-1
aI-1
aI-1
aI-8
aI-4
aI-5
aI-3
aI-4
aI-3
aI-4
aI-3
aI-8
aI-3
aI-5
aI-6
aI0
aI1
aI-1
aI-2
aI-13
aI0
aI-5
aI-1
aI-5
aI0
aI-8
aI2
aI3
aI-2
aI-6
aI3
aI1
aI-3
aI-11
aI3
aI0
aI-5
aI0
aI0
aI0
aI0
aI0
aI0
aI0
aI0
aI0
aI0
aI0
aI0
aI0
aI0
aI0
aI-1
aI-1
aI-1
aI1
aI1
aI-1
aI-1
aI-1
aI-1
aI-1
aI1
aI-1
aI-1
aI-1
aI-1
aI-12
aI-7
aI-7
aI-3
aI-2
aI-9
aI-9
aI4
aI3
aI-7
aI-6
aI-6
aI-6
aI-6
aI2
aI-3
aI5
aI7
aI1
aI0
aI3
aI5
aI3
aI-1
aI2
aI10
aI9
aI9
aI9
aI8
aI-5
aI-5
aI-3
aI-7
aI0
aI0
aI0
aI0
aI0
aI0
aI0
aI0
aI0
aI1
aI0
aI0
aI0
aI0
aI0
aI-1
aI-1
aI-1
aI1
aI-1
aI-1
aI-1
aI-1
aI-1
aI-1
aI-1
aI-1
aI-1
aI-1
aI-1
aI-13
aI-2
aI-3
aI-3
aI-2
aI-9
aI-13
aI4
aI-1
aI-10
aI-4
aI-6
aI2
aI2
aI2
aI2
aI5
aI9
aI5
aI0
aI6
aI6
aI-2
aI2
aI7
aI12
aI8
aI9
aI7
aI7
aI2
aI-13
aI-15
aI-4
aI0
aI0
aI0
aI0
aI0
aI0
aI0
aI0
aI0
aI0
aI0
aI0
aI0
aI0
aI0
aI-1
aI-1
aI-1
aI-1
aI-1
aI-1
aI-1
aI-1
aI-1
aI-1
aI-1
aI-1
aI-1
aI-1
aI-1
aI-9
aI-4
aI-3
aI-12
aI-4
aI-5
aI-12
aI-9
aI-12
aI4
aI5
aI-6
aI-7
aI-3
aI-2
aI-4
aI8
aI18
aI8
aI13
aI9
aI0
aI2
aI-1
aI-5
aI2
aI-1
aI6
aI4
aI3
aI1
aI-12
aI-10
aI-6
aI0
aI0
aI0
aI0
aI0
aI0
aI-1
aI0
aI0
aI0
aI0
aI0
aI0
aI0
aI0
aI-1
aI-1
aI1
aI-1
aI-1
aI-1
aI-1
aI-1
aI-1
aI-1
aI-1
aI-1
aI-1
aI-1
aI-1
aI-8
aI-9
aI1
aI-8
aI-11
aI-7
aI-9
aI-10
aI-9
aI-9
aI-6
aI1
aI5
aI11
aI6
aI2
aI1
aI2
aI-2
aI1
aI5
aI5
aI7
aI12
aI9
aI-3
aI0
aI6
aI4
aI-1
aI-2
aI-9
aI-8
aI-8
aI-1
aI-1
aI-1
aI-1
aI-1
aI0
aI0
aI0
aI0
aI0
aI0
aI0
aI0
aI0
aI0
aI-1
aI-1
aI1
aI-1
aI-1
aI-1
aI-1
aI-1
aI-1
aI-1
aI-1
aI-1
aI-1
aI-1
aI-1
aI-12
aI-10
aI-3
aI-6
aI-4
aI-5
aI-7
aI-13
aI-6
aI1
aI2
aI-3
aI-5
aI-4
aI-3
aI-2
aI3
aI10
aI10
aI11
aI9
aI5
aI6
aI8
aI2
aI5
aI-2
aI0
aI-2
aI-5
aI-2
aI2
aI5
aI-8
aI0
aI0
aI0
aI0
aI0
aI0
aI0
aI0
aI0
aI0
aI0
aI0
aI0
aI0
aI0
aI-1
aI-1
aI1
aI-1
aI-1
aI-1
aI-1
aI-1
aI-1
aI-1
aI-1
aI-1
aI-1
aI-1
aI-1
aI-12
aI-6
aI-4
aI-5
aI-5
aI-10
aI-4
aI-7
aI-5
aI-2
aI0
aI6
aI4
aI-1
aI-5
aI-3
aI4
aI5
aI5
aI8
aI5
aI5
aI1
aI5
aI4
aI-5
aI-4
aI-10
aI-6
aI-2
aI-6
aI1
aI3
aI-14
aI-1
aI-1
aI-1
aI0
aI0
aI0
aI-1
aI0
aI0
aI0
aI0
aI0
aI0
aI0
aI0
aI-1
aI-1
aI1
aI-1
aI-1
aI-1
aI-1
aI-1
aI-1
aI-1
aI-1
aI-1
aI-1
aI-1
aI-1
aI-5
aI-9
aI-3
aI-8
aI-4
aI-6
aI-6
aI-9
aI-6
aI-2
aI-6
aI-3
aI-7
aI-2
aI11
aI5
aI5
aI12
aI13
aI6
aI8
aI5
aI7
aI12
aI3
aI-4
aI-6
aI-5
aI-6
aI1
aI-3
aI-2
aI5
aI-15
aI0
aI-1
aI-1
aI-1
aI-1
aI-1
aI-1
aI0
aI0
aI0
aI0
aI0
aI0
aI0
aI0
aI-1
aI-1
aI1
aI-1
aI-1
aI-1
aI-1
aI-1
aI-1
aI-1
aI-1
aI-1
aI-1
aI-1
aI-1
aI-6
aI-8
aI-5
aI-10
aI-4
aI-4
aI-6
aI-6
aI-6
aI-3
aI-4
aI1
aI-1
aI-1
aI1
aI0
aI0
aI-2
aI1
aI2
aI7
aI1
aI1
aI0
aI-2
aI2
aI-4
aI-3
aI-9
aI-1
aI-6
aI-3
aI7
aI-17
aI0
aI0
aI0
aI-1
aI-1
aI0
aI0
aI0
aI0
aI0
aI0
aI0
aI0
aI0
aI0
aI-1
aI-1
aI1
aI-1
aI-1
aI-1
aI-1
aI-1
aI-1
aI-1
aI-1
aI-1
aI-1
aI-1
aI-1
aI-6
aI-7
aI-3
aI-4
aI-6
aI-6
aI-6
aI-6
aI-6
aI6
aI-10
aI-6
aI-7
aI-4
aI0
aI0
aI5
aI4
aI3
aI2
aI7
aI5
aI-3
aI-1
aI7
aI-2
aI-10
aI-4
aI0
aI1
aI4
aI2
aI-3
aI-16
aI0
aI-1
aI0
aI0
aI0
aI-1
aI-1
aI0
aI0
aI0
aI0
aI0
aI0
aI0
aI0
aI-1
aI-1
aI1
aI-1
aI-1
aI-1
aI-1
aI-1
aI-1
aI-1
aI-1
aI-1
aI-1
aI-1
aI-1
aI-11
aI2
aI-3
aI4
aI2
aI-1
aI-7
aI-6
aI0
aI0
aI0
aI0
aI1
aI-2
aI2
aI4
aI0
aI1
aI-2
aI2
aI2
aI3
aI-1
aI1
aI3
aI-2
aI-4
aI-6
aI-3
aI-4
aI1
aI-7
aI-3
aI-21
aI-8
aI-7
aI-8
aI-8
aI-7
aI-5
aI-5
aI-3
aI-3
aI-3
aI-2
aI0
aI0
aI-2
aI-4
aI1
aI1
aI-1
aI-1
aI-1
aI-1
aI1
aI1
aI1
aI-1
aI-1
aI-1
aI-1
aI-1
aI-1
aI-3
aI-2
aI0
aI-4
aI0
aI-2
aI-3
aI-1
aI-2
aI2
aI-3
aI-1
aI-4
aI0
aI0
aI-2
aI1
aI1
aI1
aI5
aI3
aI2
aI2
aI1
aI1
aI-1
aI-11
aI-8
aI-8
aI-8
aI-7
aI-1
aI1
aI-8
aI-10
aI-8
aI-8
aI-10
aI-10
aI-7
aI-8
aI-6
aI-4
aI-5
aI-5
aI-5
aI-3
aI-6
aI-6
aI-1
aI-1
aI-1
aI-1
aI1
aI1
aI-1
aI1
aI-1
aI-1
aI-1
aI-1
aI-1
aI-1
aI-1
aI0
aI-2
aI-1
aI-5
aI2
aI-5
aI-3
aI-1
aI-2
aI0
aI-2
aI-4
aI-4
aI1
aI1
aI0
aI1
aI1
aI1
aI5
aI2
aI1
aI1
aI1
aI1
aI-1
aI-3
aI-7
aI-8
aI-3
aI-9
aI1
aI2
aI-3
aI-9
aI-8
aI-8
aI-9
aI-7
aI-6
aI-9
aI-6
aI-4
aI-5
aI-5
aI-5
aI-5
aI-6
aI-6
aI-1
aI-1
aI-1
aI-1
aI1
aI1
aI-1
aI1
aI1
aI-1
aI-1
aI-1
aI-1
aI-1
aI-1
aI-3
aI-2
aI1
aI0
aI-1
aI0
aI-1
aI1
aI-2
aI-7
aI-2
aI-2
aI-2
aI-1
aI4
aI8
aI1
aI1
aI1
aI9
aI2
aI1
aI1
aI2
aI1
aI-1
aI-3
aI-7
aI-9
aI-3
aI-9
aI1
aI-4
aI2
aI-9
aI-8
aI-10
aI-9
aI-8
aI-5
aI-8
aI-6
aI-4
aI-5
aI-5
aI-5
aI-6
aI-6
aI-6
aI-1
aI-1
aI-1
aI-1
aI1
aI1
aI-1
aI-1
aI1
aI-1
aI-1
aI-1
aI-1
aI-1
aI-1
aI-6
aI-1
aI0
aI-4
aI0
aI-1
aI0
aI-1
aI-2
aI-3
aI1
aI-2
aI4
aI1
aI5
aI3
aI3
aI3
aI1
aI8
aI1
aI2
aI1
aI1
aI1
aI-1
aI-3
aI-7
aI-9
aI2
aI-8
aI-3
aI-5
aI0
aI-8
aI-6
aI-9
aI-10
aI-7
aI-5
aI-8
aI-6
aI-4
aI-5
aI-5
aI-5
aI-2
aI-6
aI-6
aI-1
aI-1
aI-1
aI-1
aI1
aI1
aI-1
aI-1
aI-1
aI-1
aI-1
aI-1
aI-1
aI-1
aI-1
aI1
aI-3
aI-3
aI-4
aI4
aI-4
aI0
aI-2
aI-2
aI-2
aI3
aI7
aI-4
aI-1
aI4
aI0
aI2
aI3
aI1
aI6
aI3
aI3
aI1
aI3
aI1
aI1
aI-3
aI-5
aI-7
aI2
aI-12
aI-1
aI3
aI2
aI-7
aI-6
aI-9
aI-7
aI-7
aI-5
aI-10
aI-5
aI-4
aI-5
aI-5
aI-4
aI-4
aI-6
aI-6
aI-1
aI-1
aI-1
aI-1
aI1
aI1
aI-1
aI-1
aI-1
aI-1
aI1
aI-1
aI-1
aI-1
aI-1
aI8
aI0
aI-1
aI-6
aI2
aI1
aI-1
aI-2
aI2
aI7
aI3
aI-2
aI3
aI-3
aI1
aI-1
aI2
aI5
aI7
aI4
aI3
aI3
aI4
aI4
aI5
aI-1
aI-2
aI-5
aI-5
aI1
aI-9
aI3
aI0
aI-1
aI-7
aI-7
aI-9
aI-6
aI-7
aI-4
aI-7
aI-6
aI-6
aI-5
aI-5
aI-4
aI-4
aI-6
aI-6
aI-1
aI-1
aI-1
aI-1
aI1
aI1
aI-1
aI-1
aI-1
aI-1
aI-1
aI1
aI1
aI-1
aI-1
aI9
aI1
aI5
aI-2
aI-2
aI-2
aI-2
aI-1
aI-1
aI2
aI1
aI1
aI3
aI2
aI4
aI5
aI1
aI4
aI3
aI4
aI2
aI2
aI2
aI2
aI2
aI2
aI1
aI-3
aI-5
aI1
aI-8
aI2
aI1
aI-2
aI-7
aI-6
aI-7
aI-7
aI-9
aI-3
aI-6
aI-5
aI-5
aI-5
aI-5
aI-4
aI-4
aI-5
aI-5
aI-1
aI-1
aI-1
aI-1
aI1
aI1
aI-1
aI-1
aI-1
aI-1
aI-1
aI-1
aI-1
aI1
aI-1
aI8
aI-1
aI0
aI4
aI10
aI-2
aI-3
aI1
aI-4
aI2
aI1
aI2
aI3
aI-3
aI3
aI8
aI5
aI8
aI5
aI2
aI2
aI2
aI2
aI2
aI2
aI1
aI0
aI-4
aI-5
aI1
aI-11
aI2
aI1
aI5
aI-8
aI-7
aI-7
aI-7
aI-8
aI-5
aI-6
aI-3
aI-5
aI-5
aI-4
aI-5
aI-5
aI-5
aI-5
aI-1
aI-1
aI-1
aI-1
aI1
aI1
aI-1
aI-1
aI-1
aI-1
aI-1
aI-1
aI-1
aI1
aI1
aI12
aI0
aI1
aI-5
aI6
aI5
aI9
aI5
aI3
aI0
aI9
aI2
aI4
aI14
aI15
aI10
aI9
aI3
aI3
aI2
aI1
aI1
aI2
aI2
aI1
aI-1
aI-2
aI-7
aI-8
aI0
aI-9
aI3
aI1
aI-3
aI-5
aI-6
aI-5
aI-6
aI-5
aI-3
aI-5
aI-3
aI-5
aI-5
aI-4
aI-5
aI-5
aI-4
aI-4
aI-1
aI-1
aI-1
aI-1
aI1
aI1
aI-1
aI-1
aI-1
aI-1
aI-1
aI-1
aI-1
aI-1
aI-1
aI14
aI0
aI1
aI-4
aI9
aI10
aI3
aI-3
aI-4
aI-4
aI8
aI7
aI4
aI14
aI14
aI5
aI2
aI1
aI1
aI2
aI4
aI2
aI2
aI1
aI1
aI-1
aI-2
aI-6
aI-7
aI-1
aI-8
aI0
aI-1
aI-1
aI-6
aI-6
aI-6
aI-6
aI-6
aI-5
aI-4
aI-3
aI-5
aI-4
aI-4
aI-5
aI-5
aI-4
aI-4
aI-1
aI-1
aI-1
aI-1
aI1
aI1
aI1
aI1
aI1
aI1
aI-1
aI1
aI1
aI1
aI1
aI16
aI4
aI4
aI6
aI10
aI8
aI-3
aI12
aI7
aI7
aI18
aI5
aI6
aI14
aI12
aI9
aI4
aI3
aI4
aI4
aI3
aI1
aI2
aI1
aI1
aI1
aI-1
aI-8
aI-6
aI-1
aI-9
aI0
aI1
aI-1
aI-6
aI-6
aI-6
aI-5
aI-5
aI-4
aI-6
aI-3
aI-4
aI-4
aI-4
aI-4
aI-4
aI-5
aI-5
aI-1
aI-1
aI-1
aI-1
aI1
aI1
aI1
aI1
aI1
aI1
aI1
aI1
aI1
aI1
aI1
aI11
aI1
aI4
aI-2
aI12
aI0
aI1
aI5
aI9
aI3
aI2
aI-1
aI7
aI8
aI12
aI0
aI1
aI1
aI1
aI4
aI3
aI5
aI2
aI3
aI1
aI1
aI-2
aI-8
aI-8
aI1
aI-9
aI0
aI2
aI4
aI-6
aI-6
aI-5
aI-6
aI-6
aI-5
aI-4
aI-2
aI-4
aI-4
aI-4
aI-4
aI-4
aI-5
aI-5
aI1
aI1
aI1
aI1
aI-1
aI-1
aI-1
aI-1
aI1
aI-1
aI1
aI-1
aI1
aI-1
aI1
aI7
aI-9
aI-3
aI-2
aI12
aI3
aI-2
aI-4
aI-5
aI0
aI-3
aI0
aI3
aI10
aI8
aI1
aI2
aI4
aI4
aI2
aI1
aI1
aI2
aI2
aI1
aI-1
aI-3
aI-7
aI-8
aI-1
aI-9
aI2
aI-5
aI5
aI-6
aI-6
aI-6
aI-6
aI-6
aI-5
aI-6
aI-4
aI-4
aI-3
aI-3
aI-5
aI-5
aI-5
aI-5
aI1
aI1
aI1
aI1
aI-1
aI-1
aI-1
aI-1
aI-1
aI-1
aI-1
aI-1
aI-1
aI-1
aI-1
aI5
aI2
aI2
aI4
aI8
aI2
aI5
aI-3
aI-5
aI2
aI-2
aI-2
aI0
aI6
aI2
aI0
aI3
aI4
aI1
aI3
aI2
aI2
aI1
aI1
aI1
aI-1
aI-3
aI-7
aI-8
aI-1
aI-10
aI2
aI0
aI2
aI-6
aI-5
aI-5
aI-6
aI-5
aI-5
aI-6
aI-4
aI-4
aI-3
aI-3
aI-5
aI-5
aI-5
aI-5
aI1
aI1
aI1
aI1
aI-1
aI-1
aI-1
aI-1
aI-1
aI-1
aI-1
aI-1
aI-1
aI-1
aI-1
aI10
aI4
aI-1
aI-5
aI-4
aI-3
aI-1
aI-2
aI-7
aI4
aI2
aI-1
aI-1
aI3
aI-2
aI3
aI-2
aI1
aI1
aI2
aI1
aI1
aI1
aI1
aI1
aI-1
aI-3
aI-7
aI-8
aI-1
aI-10
aI0
aI1
aI-3
aI-6
aI-5
aI-6
aI-6
aI-6
aI-6
aI-5
aI-5
aI-5
aI-4
aI-4
aI-5
aI-4
aI-5
aI-5
aI-1
aI-1
aI-1
aI-1
aI-2
aI-1
aI-1
aI-1
aI-1
aI-3
aI-3
aI-3
aI-3
aI-4
aI-4
aI-4
aI7
aI-1
aI4
aI0
aI10
aI8
aI7
aI-6
aI2
aI1
aI0
aI0
aI3
aI2
aI3
aI-2
aI1
aI1
aI1
aI2
aI1
aI1
aI1
aI1
aI-1
aI-3
aI-7
aI-8
aI-1
aI-10
aI0
aI0
aI3
aI-6
aI-4
aI-6
aI-6
aI-7
aI-7
aI-6
aI-5
aI-5
aI-4
aI-4
aI-5
aI-4
aI-6
aI-6
aI-3
aI-3
aI-3
aI-1
aI-2
aI-2
aI-3
aI-5
aI-3
aI-3
aI-5
aI-5
aI-5
aI-6
aI-6
aI-9
aI-9
aI-11
aI-8
aI-4
aI-9
aI-10
aI-18
aI-16
aI-4
aI-4
aI-1
aI-1
aI0
aI-1
aI2
aI-2
aI1
aI2
aI1
aI1
aI1
aI1
aI1
aI1
aI-2
aI-3
aI-7
aI-9
aI-3
aI-13
aI-2
aI-2
aI-6
aI-5
aI-5
aI-4
aI-5
aI-5
aI-5
aI-1
aI0
aI-2
aI-2
aI-2
aI-2
aI-2
aI-4
aI-4
aI-3
aI-3
aI-3
aI-3
aI-2
aI-2
aI-3
aI-3
aI-1
aI-1
aI-3
aI-3
aI-4
aI-4
aI-4
aI-9
aI-8
aI-5
aI-13
aI-7
aI-3
aI-5
aI-11
aI-13
aI3
aI-5
aI-1
aI-1
aI2
aI2
aI0
aI2
aI1
aI1
aI1
aI1
aI1
aI1
aI1
aI2
aI-2
aI-4
aI-5
aI-6
aI2
aI-7
aI2
aI0
aI-5
aI-2
aI-1
aI-2
aI-2
aI-3
aI0
aI0
aI0
aI0
aI-2
aI-2
aI-2
aI-2
aI-2
aI-2
aI-3
aI-3
aI-3
aI-3
aI-1
aI-1
aI-2
aI-2
aI-1
aI-1
aI-2
aI-3
aI-3
aI-3
aI-3
aI-9
aI-6
aI-3
aI-13
aI-7
aI2
aI-5
aI-11
aI-8
aI-1
aI-5
aI2
aI0
aI4
aI3
aI4
aI2
aI1
aI1
aI1
aI1
aI1
aI1
aI2
aI1
aI-2
aI-4
aI-5
aI-9
aI-5
aI0
aI0
aI-1
aI-4
aI-2
aI-2
aI-1
aI-1
aI-3
aI0
aI0
aI0
aI0
aI-2
aI-2
aI-2
aI-2
aI-2
aI-2
aI-2
aI-3
aI-2
aI-3
aI0
aI-1
aI-2
aI-2
aI-1
aI-1
aI-2
aI-2
aI-3
aI-3
aI-3
aI3
aI-5
aI-4
aI-12
aI-6
aI-5
aI1
aI-4
aI-13
aI2
aI-4
aI0
aI-2
aI3
aI0
aI5
aI3
aI1
aI2
aI2
aI1
aI1
aI1
aI2
aI1
aI-2
aI-4
aI-8
aI-13
aI-7
aI-4
aI8
aI-5
aI-2
aI-2
aI-2
aI-2
aI-2
aI-3
aI0
aI0
aI0
aI0
aI-2
aI-2
aI-2
aI-2
aI-2
aI-2
aI-2
aI-2
aI-2
aI0
aI0
aI0
aI-1
aI-1
aI-1
aI-1
aI-2
aI-2
aI-2
aI-2
aI-3
aI6
aI4
aI5
aI-6
aI-1
aI-1
aI-5
aI-9
aI-11
aI7
aI-4
aI-1
aI0
aI3
aI3
aI2
aI1
aI1
aI1
aI1
aI5
aI1
aI1
aI1
aI1
aI-2
aI-1
aI-12
aI-11
aI-7
aI-12
aI2
aI-2
aI-5
aI-3
aI-2
aI-2
aI-2
aI-2
aI0
aI1
aI0
aI0
aI-2
aI-2
aI-2
aI-2
aI-2
aI-2
aI-2
aI-2
aI0
aI0
aI0
aI0
aI-1
aI-1
aI-1
aI-1
aI-3
aI-3
aI-3
aI-4
aI-4
aI5
aI4
aI3
aI-3
aI1
aI-6
aI-2
aI-8
aI-12
aI4
aI-3
aI1
aI-3
aI3
aI2
aI5
aI2
aI1
aI1
aI1
aI5
aI1
aI1
aI1
aI1
aI-2
aI-3
aI-10
aI-8
aI-4
aI-14
aI-8
aI-8
aI-14
aI-3
aI-2
aI-2
aI-2
aI-2
aI0
aI0
aI1
aI0
aI-2
aI-2
aI-2
aI-2
aI-2
aI-2
aI-2
aI-2
aI-2
aI-2
aI-1
aI0
aI-2
aI-2
aI-1
aI-1
aI-4
aI-4
aI-4
aI-4
aI-4
aI-4
aI-3
aI0
aI-15
aI1
aI-11
aI-7
aI-1
aI-7
aI9
aI-2
aI0
aI-2
aI3
aI5
aI9
aI6
aI1
aI1
aI5
aI2
aI2
aI1
aI1
aI1
aI-2
aI-10
aI-7
aI-6
aI-4
aI-17
aI-12
aI-5
aI-18
aI-3
aI-2
aI-2
aI-2
aI-2
aI0
aI0
aI-1
aI-1
aI-2
aI-2
aI-2
aI-2
aI-2
aI-2
aI-2
aI-2
aI-2
aI-2
aI-1
aI-1
aI-2
aI-2
aI-1
aI-2
aI-4
aI-4
aI-4
aI-4
aI-4
aI-10
aI-3
aI-3
aI-15
aI-3
aI-10
aI-8
aI-3
aI-4
aI7
aI-2
aI-1
aI-2
aI6
aI3
aI8
aI7
aI6
aI3
aI1
aI1
aI1
aI1
aI2
aI1
aI-7
aI-11
aI-5
aI-14
aI-10
aI-12
aI-8
aI0
aI-16
aI-3
aI-2
aI-2
aI-2
aI-2
aI0
aI-2
aI-1
aI-1
aI-2
aI-2
aI-2
aI-2
aI-2
aI-2
aI-2
aI-2
aI-2
aI-2
aI-1
aI-3
aI-3
aI-2
aI-3
aI-3
aI-7
aI-5
aI-5
aI-5
aI-5
aI-13
aI-3
aI-1
aI-11
aI-4
aI-11
aI-10
aI-7
aI-9
aI5
aI-1
aI2
aI3
aI7
aI6
aI10
aI9
aI1
aI1
aI1
aI2
aI5
aI2
aI2
aI-1
aI5
aI3
aI-7
aI-14
aI-10
aI-13
aI-7
aI-3
aI-15
aI-2
aI-2
aI-2
aI-2
aI-2
aI-2
aI-2
aI-1
aI-1
aI-2
aI-2
aI-2
aI-2
aI-2
aI-2
aI-2
aI-2
aI-2
aI-2
aI-3
aI-3
aI-3
aI-3
aI-5
aI-6
aI-5
aI-5
aI-4
aI-6
aI-6
aI-3
aI-8
aI-6
aI-18
aI-8
aI-10
aI-11
aI-11
aI-7
aI4
aI-2
aI1
aI1
aI8
aI6
aI9
aI3
aI1
aI1
aI1
aI2
aI7
aI2
aI1
aI-3
aI3
aI0
aI-9
aI-12
aI-11
aI-14
aI-9
aI-4
aI-2
aI-2
aI-2
aI-2
aI-2
aI-2
aI-2
aI-2
aI-1
aI-1
aI-2
aI-2
aI-2
aI-2
aI-2
aI-2
aI-4
aI-4
aI-4
aI-3
aI-3
aI-3
aI-3
aI-3
aI-5
aI-6
aI-7
aI-4
aI-4
aI-6
aI-4
aI-5
aI-9
aI-1
aI-16
aI-8
aI-9
aI-10
aI-8
aI-7
aI0
aI0
aI1
aI1
aI7
aI7
aI5
aI7
aI1
aI2
aI2
aI1
aI5
aI4
aI4
aI2
aI-3
aI-4
aI-9
aI-11
aI-1
aI-13
aI0
aI2
aI3
aI-2
aI-2
aI-2
aI-2
aI-2
aI-2
aI-2
aI-1
aI-2
aI-2
aI-2
aI-2
aI-2
aI-2
aI-2
aI-4
aI-4
aI-4
aI-2
aI-3
aI-3
aI-3
aI-3
aI-3
aI-7
aI-7
aI-6
aI-4
aI-4
aI-7
aI-13
aI-4
aI-3
aI-18
aI-8
aI-11
aI-8
aI-9
aI-6
aI-1
aI-2
aI1
aI1
aI6
aI6
aI9
aI6
aI2
aI2
aI1
aI1
aI3
aI2
aI-1
aI3
aI-7
aI-5
aI-8
aI-11
aI-7
aI-11
aI-1
aI-1
aI2
aI-2
aI-2
aI-2
aI-2
aI-2
aI-2
aI-1
aI-2
aI-2
aI-2
aI-2
aI-2
aI-2
aI-2
aI-2
aI-4
aI-4
aI-4
aI-3
aI-3
aI-4
aI-4
aI-3
aI-4
aI-7
aI-7
aI-6
aI-4
aI-5
aI-7
aI-19
aI-2
aI-2
aI-15
aI-8
aI-12
aI-9
aI-8
aI-6
aI1
aI-2
aI1
aI1
aI6
aI5
aI5
aI5
aI2
aI1
aI1
aI2
aI2
aI5
aI8
aI-1
aI-3
aI-1
aI-6
aI-10
aI-4
aI-13
aI1
aI4
aI-5
aI-2
aI-2
aI-2
aI-2
aI-2
aI0
aI-2
aI-2
aI-2
aI-2
aI-2
aI-2
aI-2
aI-2
aI-2
aI-4
aI-4
aI-4
aI-3
aI-3
aI-4
aI-4
aI-3
aI-5
aI-4
aI-5
aI-7
aI-7
aI-5
aI-5
aI-23
aI-6
aI-2
aI-11
aI-6
aI-8
aI-8
aI-7
aI-6
aI-1
aI-2
aI1
aI1
aI7
aI7
aI9
aI6
aI1
aI2
aI1
aI4
aI2
aI3
aI1
aI0
aI-4
aI0
aI-6
aI-4
aI-3
aI-15
aI-1
aI0
aI-7
aI-2
aI-2
aI-1
aI-1
aI-2
aI0
aI-2
aI-2
aI-2
aI-2
aI-2
aI-2
aI-2
aI-2
aI-2
aI-4
aI-4
aI-4
aI-3
aI-3
aI-4
aI-4
aI-3
aI-4
aI-4
aI-5
aI-7
aI-4
aI-4
aI-7
aI-26
aI-3
aI-6
aI-10
aI-6
aI-9
aI-9
aI-8
aI-6
aI1
aI-2
aI1
aI1
aI6
aI5
aI5
aI4
aI5
aI1
aI1
aI4
aI1
aI1
aI1
aI-1
aI-6
aI-3
aI-7
aI-6
aI-4
aI-16
aI-1
aI0
aI-10
aI-2
aI-1
aI-2
aI-2
aI-2
aI0
aI-2
aI-2
aI-2
aI-2
aI-2
aI-2
aI-2
aI-2
aI-2
aI-3
aI-3
aI-1
aI1
aI2
aI-6
aI-5
aI-8
aI-6
aI-8
aI-11
aI-6
aI-5
aI-5
aI-5
aI-23
aI-15
aI-12
aI-9
aI0
aI-1
aI2
aI4
aI4
aI5
aI-2
aI6
aI-1
aI6
aI3
aI3
aI7
aI5
aI4
aI2
aI2
aI3
aI1
aI1
aI2
aI-5
aI-12
aI-6
aI-8
aI-4
aI-5
aI-6
aI-3
aI-4
aI3
aI3
aI3
aI3
aI3
aI0
aI0
aI3
aI1
aI1
aI-2
aI-2
aI0
aI3
aI3
aI-2
aI-4
aI-1
aI-2
aI4
aI1
aI-1
aI-6
aI-1
aI4
aI-2
aI-3
aI-5
aI-5
aI-5
aI-15
aI-2
aI-1
aI-1
aI4
aI-2
aI0
aI3
aI5
aI8
aI3
aI4
aI3
aI6
aI5
aI4
aI5
aI2
aI1
aI4
aI7
aI3
aI1
aI-1
aI1
aI3
aI0
aI1
aI-8
aI-1
aI1
aI2
aI-1
aI-3
aI6
aI6
aI6
aI6
aI5
aI2
aI3
aI3
aI3
aI6
aI6
aI3
aI6
aI5
aI5
aI0
aI0
aI0
aI1
aI4
aI0
aI0
aI0
aI0
aI0
aI0
aI0
aI0
aI3
aI3
aI-5
aI4
aI0
aI4
aI1
aI4
aI4
aI4
aI5
aI7
aI4
aI4
aI4
aI5
aI4
aI4
aI1
aI1
aI-4
aI-1
aI-1
aI-1
aI-3
aI-2
aI2
aI-6
aI-5
aI-3
aI-1
aI-4
aI-6
aI-7
aI-6
aI-4
aI6
aI6
aI6
aI6
aI6
aI3
aI4
aI4
aI4
aI6
aI6
aI3
aI6
aI6
aI6
aI0
aI0
aI0
aI1
aI4
aI0
aI0
aI0
aI3
aI1
aI0
aI3
aI3
aI3
aI3
aI-5
aI4
aI0
aI4
aI4
aI2
aI2
aI4
aI4
aI6
aI4
aI4
aI4
aI5
aI4
aI4
aI1
aI2
aI-6
aI2
aI-3
aI-2
aI-2
aI-3
aI-3
aI-6
aI-5
aI-6
aI0
aI-3
aI-6
aI-4
aI-5
aI-4
aI6
aI6
aI6
aI6
aI6
aI5
aI4
aI4
aI4
aI6
aI6
aI3
aI6
aI6
aI6
aI0
aI0
aI0
aI1
aI4
aI2
aI0
aI0
aI3
aI5
aI3
aI3
aI0
aI0
aI3
aI-12
aI1
aI0
aI4
aI4
aI-1
aI1
aI4
aI4
aI5
aI4
aI4
aI4
aI4
aI4
aI4
aI2
aI3
aI-1
aI3
aI-2
aI2
aI-1
aI3
aI-1
aI-5
aI-5
aI-5
aI1
aI-3
aI-3
aI-5
aI2
aI-12
aI6
aI6
aI6
aI6
aI6
aI8
aI6
aI4
aI4
aI6
aI6
aI3
aI6
aI6
aI6
aI0
aI0
aI0
aI1
aI4
aI4
aI0
aI0
aI1
aI1
aI0
aI0
aI0
aI0
aI0
aI-13
aI0
aI4
aI4
aI1
aI1
aI4
aI4
aI4
aI4
aI4
aI4
aI4
aI4
aI4
aI4
aI2
aI1
aI1
aI1
aI-2
aI-1
aI2
aI3
aI2
aI-5
aI-6
aI-4
aI-4
aI-1
aI-3
aI-5
aI-1
aI-8
aI6
aI6
aI6
aI6
aI6
aI6
aI6
aI4
aI4
aI6
aI6
aI3
aI6
aI6
aI6
aI0
aI0
aI0
aI0
aI3
aI2
aI0
aI-5
aI-4
aI3
aI3
aI3
aI0
aI3
aI3
aI-19
aI-2
aI-2
aI4
aI5
aI4
aI4
aI5
aI4
aI4
aI4
aI4
aI4
aI4
aI4
aI4
aI2
aI1
aI1
aI-2
aI-2
aI4
aI-2
aI1
aI-2
aI-5
aI-3
aI-6
aI1
aI2
aI-1
aI-5
aI-4
aI-4
aI6
aI6
aI6
aI6
aI6
aI6
aI4
aI4
aI4
aI6
aI6
aI3
aI6
aI6
aI6
aI0
aI0
aI2
aI2
aI3
aI2
aI-5
aI-5
aI4
aI-1
aI3
aI3
aI3
aI3
aI3
aI-17
aI4
aI5
aI4
aI4
aI4
aI5
aI5
aI4
aI4
aI4
aI4
aI4
aI4
aI4
aI4
aI2
aI2
aI1
aI3
aI3
aI1
aI3
aI0
aI7
aI5
aI0
aI4
aI2
aI0
aI1
aI-2
aI4
aI-3
aI6
aI6
aI6
aI6
aI6
aI3
aI4
aI4
aI4
aI6
aI6
aI3
aI6
aI6
aI6
aI0
aI0
aI2
aI2
aI4
aI2
aI-5
aI-5
aI0
aI-1
aI3
aI0
aI0
aI0
aI3
aI-7
aI1
aI4
aI11
aI7
aI0
aI5
aI16
aI7
aI7
aI8
aI3
aI3
aI5
aI1
aI3
aI0
aI6
aI-2
aI13
aI-4
aI6
aI-3
aI1
aI3
aI7
aI5
aI7
aI2
aI3
aI6
aI-1
aI7
aI-4
aI6
aI6
aI6
aI6
aI6
aI3
aI6
aI4
aI4
aI6
aI6
aI6
aI6
aI6
aI6
aI2
aI2
aI2
aI2
aI4
aI3
aI-5
aI-3
aI-4
aI-3
aI0
aI0
aI0
aI0
aI0
aI-4
aI-4
aI2
aI3
aI-2
aI6
aI9
aI22
aI11
aI12
aI12
aI8
aI21
aI1
aI5
aI4
aI5
aI6
aI4
aI2
aI4
aI4
aI4
aI8
aI13
aI5
aI12
aI0
aI4
aI3
aI8
aI3
aI8
aI-4
aI6
aI6
aI6
aI6
aI6
aI3
aI6
aI4
aI4
aI6
aI6
aI6
aI4
aI4
aI4
aI2
aI2
aI2
aI2
aI4
aI4
aI-5
aI-3
aI-4
aI-4
aI0
aI0
aI0
aI0
aI0
aI-5
aI4
aI1
aI4
aI-3
aI7
aI6
aI25
aI15
aI10
aI13
aI17
aI23
aI10
aI1
aI2
aI-2
aI4
aI-1
aI1
aI2
aI4
aI5
aI7
aI11
aI6
aI9
aI3
aI2
aI3
aI6
aI0
aI2
aI-1
aI6
aI6
aI6
aI6
aI6
aI3
aI6
aI4
aI4
aI6
aI6
aI6
aI6
aI4
aI4
aI3
aI3
aI0
aI-2
aI-1
aI-1
aI-2
aI-2
aI-2
aI-2
aI4
aI3
aI3
aI0
aI0
aI3
aI-2
aI1
aI-3
aI9
aI8
aI4
aI12
aI-1
aI-2
aI-5
aI-5
aI5
aI9
aI5
aI7
aI-2
aI12
aI11
aI13
aI18
aI3
aI-7
aI-5
aI-4
aI-3
aI1
aI-5
aI2
aI5
aI9
aI5
aI-13
aI-3
aI6
aI6
aI6
aI6
aI3
aI3
aI6
aI6
aI6
aI6
aI6
aI3
aI3
aI6
aI6
aI3
aI3
aI0
aI-2
aI-2
aI-1
aI-2
aI-2
aI-2
aI-2
aI4
aI4
aI3
aI5
aI3
aI0
aI1
aI4
aI1
aI1
aI7
aI2
aI7
aI5
aI1
aI-2
aI0
aI1
aI8
aI7
aI6
aI-1
aI-6
aI6
aI7
aI-1
aI-4
aI-5
aI-2
aI-6
aI-5
aI-4
aI-12
aI-1
aI1
aI5
aI-5
aI-4
aI-3
aI6
aI6
aI6
aI6
aI3
aI3
aI6
aI6
aI6
aI6
aI6
aI3
aI3
aI6
aI6
aI1
aI1
aI3
aI3
aI-2
aI-1
aI-2
aI-2
aI-2
aI-2
aI2
aI2
aI0
aI0
aI0
aI-3
aI5
aI-5
aI-6
aI-10
aI3
aI-2
aI-1
aI1
aI-4
aI-6
aI1
aI-1
aI4
aI-3
aI-1
aI-4
aI-6
aI0
aI0
aI7
aI5
aI2
aI-8
aI-6
aI-5
aI-7
aI-16
aI1
aI-6
aI4
aI-11
aI-16
aI-3
aI6
aI6
aI6
aI6
aI3
aI3
aI6
aI6
aI6
aI6
aI6
aI3
aI3
aI6
aI6
aI1
aI1
aI3
aI3
aI-2
aI-1
aI-1
aI-2
aI-2
aI-2
aI2
aI1
aI0
aI0
aI2
aI-5
aI-4
aI-3
aI0
aI-6
aI-2
aI0
aI-1
aI0
aI-6
aI-6
aI0
aI-1
aI4
aI-3
aI2
aI0
aI-3
aI-7
aI-1
aI4
aI3
aI2
aI-9
aI-7
aI-7
aI4
aI-1
aI3
aI8
aI2
aI-4
aI-4
aI-7
aI6
aI6
aI6
aI6
aI3
aI3
aI6
aI6
aI6
aI6
aI6
aI3
aI3
aI6
aI6
aI1
aI1
aI3
aI3
aI2
aI2
aI-3
aI-3
aI-4
aI-4
aI1
aI1
aI0
aI0
aI0
aI-11
aI-11
aI-9
aI-2
aI-5
aI-9
aI-11
aI-2
aI-2
aI-3
aI-4
aI-7
aI-7
aI-3
aI-5
aI-3
aI7
aI1
aI-2
aI6
aI5
aI-4
aI-5
aI1
aI2
aI2
aI0
aI-4
aI-3
aI1
aI0
aI-5
aI-5
aI13
aI6
aI4
aI6
aI6
aI6
aI3
aI6
aI6
aI6
aI6
aI6
aI3
aI3
aI6
aI6
aI1
aI1
aI3
aI3
aI2
aI2
aI-3
aI-3
aI-4
aI-4
aI1
aI1
aI0
aI0
aI0
aI-8
aI-8
aI-6
aI-2
aI-7
aI-9
aI-10
aI-2
aI-3
aI-4
aI-4
aI-7
aI-7
aI-4
aI-5
aI-3
aI4
aI1
aI-2
aI5
aI5
aI-4
aI-5
aI2
aI1
aI1
aI-2
aI-4
aI-3
aI1
aI0
aI-5
aI-5
aI9
aI6
aI6
aI6
aI6
aI6
aI3
aI6
aI6
aI6
aI6
aI6
aI3
aI3
aI6
aI6
asbag0
(g8
g2
Ntp20
Rp21
(dp22
g12
I50
sg13
I4096
sg14
(lp23
I1
aI1
aI1
aI1
aI0
aI0
aI0
aI0
aI1
aI1
aI0
aI0
aI0
aI0
aI0
aI3
aI-6
aI-6
aI-1
aI0
aI-5
aI-5
aI-5
aI-5
aI-5
aI-6
aI-5
aI-5
aI-2
aI-3
aI-5
aI-2
aI-1
aI-3
aI1
aI-6
aI-4
aI-1
aI0
aI0
aI-7
aI-7
aI-5
aI1
aI-7
aI-3
aI-4
aI-5
aI-3
aI-2
aI-2
aI-2
aI-2
aI-2
aI-1
aI-1
aI-1
aI-1
aI-2
aI-2
aI-1
aI-2
aI-1
aI-1
aI1
aI1
aI1
aI1
aI0
aI0
aI0
aI0
aI1
aI1
aI0
aI0
aI0
aI0
aI0
aI-2
aI-3
aI-6
aI-1
aI0
aI-5
aI-5
aI-5
aI-5
aI-4
aI-4
aI-5
aI-5
aI-2
aI-3
aI-5
aI0
aI-4
aI-3
aI-2
aI-3
aI-3
aI-1
aI-4
aI-4
aI-7
aI-7
aI-5
aI1
aI-7
aI-3
aI-3
aI-5
aI-2
aI-2
aI-2
aI-2
aI-2
aI-2
aI-1
aI-1
aI-1
aI-1
aI-2
aI-2
aI-1
aI-2
aI-1
aI-1
aI1
aI1
aI1
aI1
aI1
aI1
aI1
aI1
aI1
aI1
aI1
aI0
aI0
aI0
aI0
aI-5
aI3
aI3
aI3
aI4
aI-1
aI2
aI-2
aI-2
aI-1
aI-6
aI-5
aI-3
aI-2
aI-3
aI0
aI1
aI-4
aI-4
aI-2
aI-4
aI-2
aI2
aI1
aI3
aI-8
aI-8
aI-5
aI1
aI-7
aI-3
aI-4
aI-5
aI-2
aI-2
aI-2
aI-2
aI-1
aI-1
aI-1
aI-1
aI-1
aI-1
aI-1
aI-2
aI-1
aI-2
aI-2
aI-2
aI1
aI1
aI1
aI1
aI1
aI1
aI1
aI1
aI1
aI1
aI1
aI1
aI0
aI0
aI0
aI-3
aI8
aI3
aI3
aI3
aI5
aI2
aI-1
aI-2
aI0
aI-5
aI-3
aI1
aI0
aI0
aI0
aI1
aI0
aI-2
aI-2
aI-2
aI-8
aI1
aI0
aI-1
aI-7
aI-6
aI-3
aI-5
aI0
aI-2
aI-3
aI-6
aI-6
aI-2
aI-2
aI-2
aI-1
aI-1
aI-1
aI-1
aI-1
aI-1
aI-1
aI-1
aI-1
aI-2
aI-2
aI-2
aI1
aI1
aI1
aI1
aI1
aI1
aI1
aI1
aI1
aI1
aI1
aI1
aI1
aI1
aI1
aI-4
aI6
aI3
aI7
aI6
aI8
aI6
aI-5
aI-3
aI-1
aI0
aI-2
aI1
aI1
aI0
aI0
aI4
aI1
aI0
aI-3
aI-2
aI-1
aI6
aI3
aI3
aI5
aI6
aI1
aI-3
aI-8
aI-5
aI-2
aI-5
aI-9
aI-2
aI-2
aI-2
aI-2
aI-2
aI-1
aI-1
aI-1
aI-1
aI-1
aI-1
aI0
aI-1
aI-1
aI-1
aI1
aI1
aI1
aI1
aI1
aI1
aI1
aI1
aI1
aI1
aI1
aI1
aI1
aI0
aI0
aI7
aI4
aI4
aI6
aI7
aI7
aI7
aI1
aI-3
aI-3
aI-4
aI0
aI2
aI-2
aI-2
aI-2
aI3
aI4
aI4
aI-2
aI-2
aI4
aI-1
aI-1
aI1
aI4
aI1
aI-6
aI-6
aI1
aI-7
aI-4
aI-8
aI-2
aI-2
aI-1
aI-2
aI-2
aI-2
aI-1
aI-1
aI-1
aI-1
aI-1
aI-1
aI0
aI-2
aI-2
aI-2
aI0
aI0
aI0
aI0
aI1
aI1
aI0
aI0
aI1
aI1
aI0
aI0
aI0
aI0
aI0
aI3
aI0
aI0
aI1
aI2
aI0
aI0
aI2
aI1
aI5
aI5
aI3
aI0
aI1
aI1
aI0
aI-6
aI0
aI1
aI-3
aI2
aI7
aI4
aI7
aI3
aI0
aI-6
aI-1
aI6
aI7
aI9
aI7
aI4
aI0
aI-1
aI-1
aI-1
aI-1
aI-1
aI-1
aI-1
aI-1
aI-1
aI-2
aI-2
aI-1
aI-2
aI-2
aI-2
aI0
aI0
aI0
aI0
aI1
aI0
aI0
aI0
aI1
aI1
aI0
aI0
aI0
aI0
aI0
aI3
aI1
aI0
aI1
aI2
aI0
aI0
aI-1
aI0
aI-1
aI-3
aI0
aI0
aI1
aI1
aI0
aI-4
aI-3
aI0
aI-3
aI-2
aI-2
aI1
aI2
aI6
aI1
aI-5
aI3
aI1
aI5
aI1
aI1
aI0
aI-2
aI-1
aI-1
aI-1
aI-1
aI-1
aI-1
aI-1
aI0
aI-1
aI-2
aI-2
aI-1
aI-2
aI-2
aI-2
aI0
aI0
aI0
aI0
aI1
aI0
aI0
aI0
aI0
aI1
aI0
aI0
aI0
aI0
aI0
aI-1
aI-5
aI2
aI3
aI3
aI0
aI1
aI-8
aI-2
aI10
aI-7
aI3
aI5
aI5
aI6
aI6
aI-9
aI-5
aI-10
aI-13
aI6
aI6
aI-6
aI-14
aI15
aI-1
aI-2
aI-3
aI-2
aI2
aI5
aI1
aI-6
aI-11
aI-2
aI-3
aI-2
aI-1
aI-2
aI-2
aI-1
aI-1
aI0
aI-2
aI-2
aI-1
aI-2
aI-2
aI-2
aI0
aI0
aI0
aI0
aI1
aI0
aI0
aI0
aI0
aI0
aI0
aI0
aI0
aI0
aI0
aI-7
aI1
aI-4
aI0
aI-6
aI4
aI-3
aI1
aI1
aI-4
aI-7
aI10
aI5
aI-9
aI-3
aI1
aI-2
aI2
aI13
aI7
aI13
aI2
aI-9
aI-11
aI6
aI-1
aI-4
aI-7
aI-10
aI-7
aI-8
aI3
aI-1
aI-11
aI-3
aI-2
aI-2
aI-3
aI-2
aI-1
aI-3
aI-1
aI-1
aI-2
aI-2
aI-1
aI-2
aI-2
aI-2
aI0
aI0
aI0
aI0
aI1
aI0
aI0
aI0
aI0
aI0
aI0
aI0
aI0
aI0
aI0
aI-4
aI5
aI3
aI7
aI1
aI5
aI1
aI6
aI2
aI0
aI6
aI10
aI8
aI5
aI7
aI1
aI3
aI-1
aI-5
aI-2
aI7
aI6
aI5
aI3
aI-8
aI2
aI2
aI-2
aI-3
aI-5
aI-8
aI-1
aI1
aI-10
aI-3
aI-3
aI-2
aI-3
aI-3
aI-1
aI-2
aI-1
aI-1
aI-2
aI-2
aI-1
aI-2
aI-2
aI-2
aI0
aI0
aI0
aI1
aI0
aI0
aI0
aI0
aI0
aI0
aI0
aI0
aI0
aI0
aI0
aI3
aI-1
aI1
aI7
aI6
aI6
aI2
aI2
aI5
aI5
aI-2
aI-1
aI0
aI6
aI3
aI4
aI0
aI3
aI-5
aI-5
aI-2
aI2
aI-2
aI-3
aI1
aI-2
aI-1
aI-3
aI-3
aI-3
aI2
aI-1
aI-8
aI-11
aI-2
aI-2
aI-3
aI-2
aI-2
aI-3
aI-2
aI-1
aI-1
aI-2
aI-2
aI-1
aI-2
aI-2
aI-2
aI0
aI0
aI0
aI1
aI0
aI0
aI0
aI0
aI0
aI0
aI0
aI0
aI0
aI0
aI0
aI3
aI2
aI-3
aI3
aI1
aI5
aI5
aI5
aI-1
aI3
aI7
aI8
aI8
aI3
aI6
aI4
aI-2
aI0
aI-3
aI3
aI3
aI-5
aI-3
aI-7
aI4
aI-3
aI-3
aI-2
aI-1
aI-3
aI1
aI-2
aI-2
aI-9
aI-3
aI-2
aI-3
aI-2
aI-3
aI-3
aI-1
aI-1
aI-1
aI-2
aI-2
aI-1
aI-2
aI-2
aI-2
aI0
aI0
aI0
aI1
aI0
aI0
aI0
aI0
aI0
aI1
aI0
aI0
aI0
aI0
aI0
aI1
aI-2
aI5
aI6
aI1
aI1
aI-1
aI-1
aI-1
aI4
aI4
aI7
aI6
aI8
aI17
aI12
aI0
aI0
aI0
aI-6
aI-7
aI-4
aI4
aI3
aI-1
aI2
aI1
aI-2
aI0
aI-3
aI1
aI-4
aI-3
aI-5
aI-3
aI-3
aI-2
aI-2
aI-3
aI-2
aI-3
aI-1
aI-1
aI-1
aI-2
aI-1
aI-2
aI-2
aI-2
aI0
aI0
aI0
aI1
aI0
aI0
aI0
aI0
aI0
aI1
aI0
aI0
aI0
aI0
aI0
aI1
aI1
aI1
aI1
aI5
aI5
aI-1
aI-1
aI-1
aI8
aI3
aI2
aI3
aI4
aI2
aI3
aI-3
aI-1
aI-1
aI-4
aI-2
aI-1
aI3
aI-3
aI-2
aI-2
aI-5
aI2
aI-7
aI-7
aI-6
aI-3
aI-5
aI-5
aI-3
aI-3
aI-2
aI-2
aI-3
aI-2
aI-3
aI-1
aI-1
aI-1
aI-2
aI-1
aI-2
aI-2
aI-2
aI0
aI0
aI0
aI1
aI0
aI0
aI0
aI0
aI0
aI1
aI0
aI0
aI0
aI0
aI0
aI7
aI-3
aI5
aI-5
aI-2
aI0
aI3
aI3
aI1
aI3
aI-3
aI4
aI4
aI2
aI-1
aI0
aI-2
aI1
aI0
aI-1
aI2
aI0
aI3
aI-5
aI1
aI1
aI0
aI4
aI5
aI5
aI-5
aI2
aI6
aI-9
aI0
aI-3
aI0
aI5
aI5
aI4
aI3
aI0
aI0
aI-1
aI4
aI-2
aI-2
aI0
aI2
aI0
aI1
aI1
aI0
aI0
aI0
aI0
aI0
aI0
aI1
aI0
aI0
aI0
aI0
aI0
aI0
aI3
aI-2
aI2
aI-3
aI1
aI3
aI0
aI1
aI0
aI0
aI3
aI-1
aI0
aI-3
aI6
aI0
aI-2
aI-4
aI5
aI-3
aI-5
aI-1
aI0
aI-1
aI0
aI0
aI0
aI0
aI0
aI7
aI2
aI-3
aI4
aI2
aI1
aI0
aI4
aI7
aI7
aI3
aI3
aI-1
aI3
aI2
aI6
aI-8
aI3
aI1
aI0
aI1
aI1
aI0
aI0
aI0
aI0
aI0
aI0
aI1
aI0
aI0
aI0
aI0
aI0
aI3
aI4
aI2
aI2
aI-3
aI4
aI2
aI-1
aI2
aI-1
aI2
aI3
aI-1
aI-6
aI0
aI15
aI-1
aI-2
aI-2
aI-1
aI3
aI-1
aI-2
aI0
aI0
aI1
aI1
aI0
aI0
aI0
aI0
aI1
aI-5
aI7
aI4
aI2
aI2
aI4
aI1
aI0
aI3
aI3
aI2
aI2
aI2
aI6
aI-2
aI4
aI3
aI0
aI0
aI1
aI0
aI0
aI0
aI0
aI0
aI0
aI1
aI0
aI0
aI0
aI0
aI0
aI6
aI1
aI0
aI4
aI2
aI2
aI2
aI1
aI1
aI0
aI5
aI2
aI1
aI5
aI5
aI10
aI-1
aI-1
aI-1
aI5
aI0
aI1
aI0
aI1
aI0
aI2
aI2
aI2
aI2
aI1
aI0
aI-4
aI-1
aI9
aI4
aI1
aI4
aI3
aI1
aI1
aI3
aI3
aI2
aI2
aI2
aI6
aI2
aI4
aI3
aI0
aI0
aI0
aI1
aI0
aI0
aI0
aI0
aI0
aI1
aI0
aI0
aI0
aI0
aI0
aI9
aI3
aI2
aI2
aI-3
aI3
aI5
aI0
aI3
aI0
aI0
aI-1
aI2
aI7
aI1
aI7
aI-6
aI-3
aI-1
aI-7
aI4
aI2
aI0
aI1
aI1
aI1
aI2
aI3
aI2
aI1
aI2
aI-4
aI0
aI-3
aI1
aI2
aI4
aI3
aI2
aI1
aI4
aI3
aI3
aI2
aI2
aI6
aI-4
aI3
aI2
aI0
aI0
aI0
aI0
aI0
aI0
aI0
aI0
aI0
aI0
aI0
aI0
aI0
aI0
aI0
aI7
aI2
aI3
aI0
aI-6
aI5
aI6
aI3
aI2
aI1
aI3
aI3
aI6
aI4
aI-1
aI7
aI-1
aI0
aI-1
aI-2
aI1
aI-2
aI-1
aI1
aI0
aI2
aI2
aI1
aI1
aI1
aI-6
aI-5
aI1
aI-4
aI2
aI2
aI3
aI1
aI2
aI0
aI4
aI0
aI3
aI2
aI2
aI6
aI-1
aI3
aI2
aI0
aI0
aI0
aI0
aI1
aI0
aI0
aI0
aI0
aI0
aI0
aI0
aI0
aI0
aI0
aI13
aI2
aI-2
aI4
aI2
aI2
aI4
aI2
aI3
aI-2
aI6
aI5
aI1
aI6
aI3
aI9
aI4
aI-3
aI4
aI6
aI4
aI2
aI-3
aI3
aI1
aI1
aI3
aI1
aI1
aI0
aI-5
aI-3
aI0
aI-1
aI2
aI1
aI4
aI2
aI2
aI0
aI2
aI4
aI3
aI2
aI2
aI6
aI-1
aI3
aI2
aI0
aI0
aI0
aI0
aI0
aI1
aI0
aI0
aI0
aI0
aI1
aI0
aI0
aI0
aI0
aI9
aI0
aI5
aI5
aI3
aI2
aI5
aI8
aI9
aI0
aI-4
aI6
aI7
aI0
aI-2
aI9
aI1
aI0
aI-5
aI4
aI8
aI-1
aI-2
aI0
aI1
aI2
aI3
aI2
aI1
aI0
aI0
aI-4
aI-2
aI-2
aI1
aI1
aI1
aI2
aI3
aI-5
aI2
aI3
aI3
aI2
aI2
aI6
aI-1
aI3
aI2
aI0
aI0
aI0
aI0
aI0
aI0
aI1
aI0
aI0
aI0
aI1
aI0
aI0
aI0
aI0
aI10
aI2
aI5
aI4
aI-3
aI1
aI2
aI3
aI-4
aI-6
aI0
aI2
aI4
aI5
aI2
aI-5
aI-2
aI2
aI-1
aI2
aI5
aI0
aI-1
aI1
aI1
aI2
aI1
aI0
aI1
aI-1
aI-1
aI-4
aI-1
aI-2
aI4
aI2
aI2
aI1
aI3
aI-1
aI1
aI3
aI3
aI2
aI6
aI5
aI2
aI3
aI2
aI0
aI0
aI0
aI0
aI0
aI0
aI1
aI1
aI0
aI0
aI0
aI1
aI1
aI0
aI0
aI11
aI0
aI3
aI2
aI-3
aI5
aI13
aI-5
aI-4
aI-2
aI-17
aI-2
aI-5
aI-10
aI-5
aI0
aI4
aI-1
aI0
aI3
aI0
aI-2
aI0
aI1
aI0
aI1
aI0
aI2
aI1
aI1
aI1
aI-4
aI0
aI-6
aI2
aI2
aI2
aI3
aI3
aI-3
aI4
aI3
aI3
aI2
aI6
aI5
aI2
aI-1
aI-1
aI0
aI0
aI0
aI0
aI0
aI0
aI1
aI1
aI0
aI0
aI0
aI0
aI1
aI1
aI1
aI10
aI3
aI5
aI7
aI-8
aI4
aI11
aI-4
aI-9
aI-17
aI-13
aI5
aI-2
aI-6
aI-5
aI-5
aI-2
aI-1
aI-2
aI0
aI6
aI-1
aI-2
aI-1
aI-1
aI0
aI1
aI1
aI2
aI1
aI0
aI0
aI0
aI-5
aI2
aI3
aI4
aI3
aI3
aI1
aI1
aI3
aI3
aI4
aI6
aI5
aI2
aI-1
aI-1
aI0
aI0
aI0
aI0
aI0
aI0
aI1
aI1
aI1
aI1
aI0
aI0
aI0
aI0
aI0
aI12
aI-3
aI-7
aI-9
aI-15
aI-18
aI-11
aI-21
aI-14
aI-13
aI-19
aI-17
aI-17
aI-25
aI-17
aI-14
aI-18
aI-1
aI-1
aI-2
aI0
aI-1
aI-5
aI-1
aI0
aI0
aI0
aI1
aI1
aI0
aI0
aI-1
aI2
aI-3
aI2
aI2
aI2
aI4
aI4
aI1
aI4
aI-2
aI1
aI5
aI6
aI6
aI3
aI3
aI3
aI0
aI0
aI0
aI0
aI0
aI0
aI1
aI1
aI1
aI1
aI0
aI0
aI0
aI0
aI0
aI8
aI-1
aI-10
aI-6
aI-15
aI-13
aI-6
aI-10
aI-14
aI-18
aI-15
aI-11
aI-21
aI-15
aI-29
aI-9
aI-10
aI1
aI2
aI-6
aI-4
aI-5
aI-5
aI-2
aI-2
aI0
aI0
aI2
aI1
aI0
aI2
aI-4
aI-6
aI0
aI2
aI2
aI3
aI2
aI4
aI5
aI1
aI-6
aI1
aI5
aI7
aI6
aI3
aI3
aI3
aI1
aI1
aI1
aI1
aI1
aI1
aI1
aI1
aI1
aI1
aI1
aI1
aI1
aI1
aI1
aI2
aI5
aI4
aI3
aI-18
aI-10
aI-1
aI1
aI1
aI-14
aI-9
aI-20
aI-14
aI-16
aI-6
aI6
aI-15
aI-5
aI-1
aI-5
aI0
aI-1
aI-1
aI-1
aI-1
aI0
aI0
aI1
aI2
aI1
aI2
aI-3
aI-1
aI-6
aI2
aI2
aI2
aI2
aI4
aI4
aI3
aI1
aI1
aI2
aI4
aI6
aI3
aI3
aI3
aI0
aI0
aI0
aI0
aI1
aI1
aI1
aI1
aI1
aI1
aI1
aI1
aI1
aI1
aI1
aI-4
aI4
aI4
aI-5
aI-21
aI-1
aI-9
aI-4
aI1
aI-10
aI-9
aI-16
aI-11
aI-5
aI3
aI3
aI-10
aI-4
aI-1
aI-10
aI-4
aI-5
aI-2
aI-1
aI-1
aI0
aI0
aI1
aI1
aI1
aI0
aI-2
aI-4
aI-4
aI2
aI-1
aI-2
aI2
aI4
aI5
aI3
aI1
aI1
aI2
aI3
aI6
aI3
aI3
aI3
aI0
aI0
aI0
aI0
aI0
aI0
aI1
aI1
aI0
aI0
aI0
aI0
aI0
aI0
aI1
aI0
aI3
aI4
aI-1
aI-11
aI4
aI2
aI-7
aI-5
aI-12
aI-16
aI-11
aI-11
aI-14
aI-6
aI6
aI-2
aI-4
aI-2
aI-1
aI0
aI-1
aI-1
aI-1
aI-2
aI0
aI0
aI1
aI1
aI0
aI0
aI2
aI-4
aI-3
aI2
aI-1
aI2
aI2
aI3
aI4
aI4
aI-1
aI-1
aI-1
aI2
aI6
aI-1
aI4
aI4
aI-1
aI-1
aI-1
aI0
aI0
aI0
aI1
aI1
aI0
aI0
aI0
aI0
aI0
aI-1
aI0
aI9
aI2
aI-1
aI-7
aI-8
aI-20
aI-12
aI-19
aI-2
aI-11
aI-12
aI-13
aI-11
aI-11
aI-9
aI-7
aI-2
aI-2
aI-2
aI-2
aI-1
aI-2
aI-2
aI-2
aI-1
aI0
aI0
aI0
aI0
aI-1
aI-1
aI-4
aI-1
aI1
aI3
aI-4
aI3
aI3
aI4
aI6
aI5
aI-4
aI-5
aI-1
aI2
aI7
aI-1
aI4
aI4
aI-6
aI-2
aI-1
aI-1
aI-1
aI-1
aI0
aI1
aI-2
aI-2
aI-6
aI-6
aI-6
aI-6
aI-5
aI22
aI7
aI6
aI14
aI12
aI-6
aI1
aI8
aI8
aI4
aI-7
aI-9
aI-8
aI-7
aI-2
aI-11
aI-1
aI-1
aI-1
aI-2
aI-2
aI-2
aI-2
aI-2
aI-2
aI-1
aI-1
aI0
aI-2
aI-3
aI5
aI-8
aI-2
aI-17
aI-1
aI-5
aI-4
aI5
aI5
aI5
aI3
aI-1
aI-1
aI0
aI0
aI0
aI-2
aI5
aI1
aI-6
aI-6
aI-1
aI-1
aI-1
aI-1
aI0
aI1
aI-2
aI-2
aI-6
aI-6
aI-6
aI-6
aI-5
aI22
aI10
aI6
aI16
aI8
aI-1
aI1
aI4
aI4
aI4
aI5
aI-4
aI-6
aI-1
aI-4
aI-2
aI-1
aI-2
aI-1
aI-2
aI-2
aI-2
aI-2
aI-2
aI-6
aI-1
aI-1
aI-3
aI-4
aI-8
aI-5
aI-5
aI-4
aI-25
aI-1
aI-1
aI-1
aI-1
aI-1
aI-1
aI-1
aI-1
aI-1
aI0
aI0
aI-1
aI0
aI0
aI-1
aI-6
aI-6
aI-1
aI-1
aI0
aI0
aI1
aI1
aI1
aI1
aI-5
aI-5
aI-5
aI-5
aI-5
aI16
aI14
aI11
aI12
aI10
aI-14
aI2
aI10
aI8
aI4
aI5
aI-1
aI4
aI-1
aI-1
aI-1
aI0
aI-2
aI-1
aI-1
aI-2
aI-2
aI-2
aI-6
aI-2
aI-1
aI-1
aI-3
aI0
aI-1
aI-17
aI-1
aI-6
aI-27
aI-1
aI-1
aI-1
aI-1
aI-1
aI-1
aI-1
aI-1
aI-1
aI0
aI0
aI-1
aI0
aI-1
aI-1
aI-5
aI-5
aI0
aI0
aI0
aI0
aI1
aI1
aI1
aI1
aI-5
aI-5
aI-5
aI-5
aI-5
aI-1
aI8
aI6
aI9
aI14
aI-15
aI-13
aI1
aI8
aI6
aI-1
aI5
aI0
aI1
aI6
aI2
aI3
aI-2
aI-1
aI-2
aI-2
aI-1
aI-1
aI-2
aI-2
aI-1
aI-1
aI1
aI1
aI-7
aI-8
aI-14
aI-3
aI-34
aI-1
aI-1
aI-1
aI-1
aI-1
aI-1
aI-1
aI-1
aI-1
aI0
aI0
aI0
aI-1
aI-1
aI-1
aI-5
aI-5
aI-1
aI-1
aI-1
aI-1
aI1
aI1
aI1
aI1
aI-5
aI-5
aI-5
aI-5
aI-5
aI-20
aI-6
aI3
aI-9
aI-15
aI-28
aI-10
aI8
aI9
aI-8
aI1
aI2
aI4
aI9
aI9
aI7
aI3
aI5
aI-1
aI-2
aI1
aI-1
aI-2
aI-2
aI-2
aI-1
aI-5
aI1
aI-6
aI0
aI-3
aI-4
aI-7
aI-18
aI-1
aI-1
aI-1
aI-1
aI-1
aI-1
aI-1
aI-1
aI-1
aI0
aI0
aI-1
aI-1
aI-1
aI-1
aI-5
aI-5
aI-1
aI-1
aI-1
aI-1
aI1
aI1
aI1
aI1
aI-5
aI-5
aI-5
aI-6
aI-6
aI-18
aI-21
aI-4
aI-23
aI-13
aI-4
aI-4
aI7
aI9
aI0
aI7
aI5
aI4
aI9
aI5
aI9
aI5
aI-1
aI-2
aI-1
aI1
aI-1
aI-2
aI-2
aI-1
aI-1
aI-4
aI-6
aI-8
aI-6
aI-2
aI-2
aI-1
aI2
aI-1
aI-1
aI-1
aI-1
aI-1
aI0
aI-1
aI-1
aI-1
aI0
aI1
aI-1
aI-1
aI-1
aI-1
aI-5
aI-5
aI-1
aI-1
aI-1
aI-1
aI0
aI0
aI-1
aI-1
aI-5
aI-5
aI-4
aI-5
aI-5
aI-11
aI-5
aI-6
aI-3
aI-7
aI9
aI9
aI-4
aI-14
aI-11
aI-2
aI0
aI3
aI7
aI17
aI11
aI6
aI2
aI-2
aI2
aI-1
aI0
aI-2
aI-2
aI-2
aI-1
aI-6
aI-5
aI-12
aI-4
aI1
aI-2
aI-1
aI-8
aI-1
aI-1
aI-1
aI-1
aI0
aI-1
aI-1
aI-1
aI-1
aI1
aI0
aI-1
aI-1
aI-1
aI-1
aI-5
aI-5
aI-1
aI-1
aI-1
aI-1
aI0
aI0
aI-1
aI-1
aI-5
aI-4
aI-4
aI-6
aI-6
aI10
aI4
aI1
aI-2
aI11
aI9
aI4
aI-3
aI7
aI4
aI7
aI2
aI3
aI7
aI8
aI6
aI5
aI3
aI0
aI1
aI-2
aI-2
aI-2
aI-6
aI-2
aI-4
aI-11
aI-13
aI-8
aI-6
aI-4
aI-3
aI-6
aI-5
aI-1
aI-1
aI-1
aI-1
aI0
aI-1
aI0
aI-1
aI0
aI0
aI0
aI-1
aI-1
aI-1
aI-1
aI-6
aI-6
aI-1
aI-1
aI-1
aI-1
aI0
aI-1
aI-6
aI-1
aI-9
aI-6
aI-7
aI-7
aI-10
aI8
aI4
aI1
aI-7
aI14
aI10
aI1
aI-16
aI5
aI18
aI11
aI10
aI9
aI15
aI10
aI19
aI8
aI3
aI-1
aI2
aI-2
aI1
aI-6
aI-5
aI-9
aI-12
aI-5
aI-13
aI-11
aI-10
aI-5
aI-10
aI-6
aI-2
aI-1
aI-1
aI-4
aI-4
aI-1
aI-1
aI-5
aI1
aI1
aI0
aI0
aI0
aI0
aI-1
aI-1
aI-6
aI-6
aI-1
aI-1
aI-1
aI1
aI-1
aI-1
aI-1
aI-7
aI-5
aI-7
aI-9
aI-9
aI-9
aI-18
aI3
aI5
aI6
aI0
aI0
aI6
aI6
aI6
aI10
aI6
aI6
aI5
aI9
aI8
aI17
aI3
aI3
aI-2
aI-1
aI-2
aI5
aI-6
aI-2
aI-6
aI-7
aI-14
aI-4
aI-20
aI-4
aI-1
aI0
aI-2
aI-12
aI-4
aI0
aI0
aI-5
aI-1
aI-1
aI-1
aI1
aI1
aI0
aI0
aI0
aI0
aI-1
aI-1
aI-6
aI-6
aI-2
aI-2
aI0
aI-1
aI-1
aI-2
aI-6
aI-7
aI-7
aI-9
aI-9
aI-6
aI-6
aI-18
aI3
aI-4
aI2
aI-2
aI-2
aI-1
aI0
aI1
aI14
aI12
aI11
aI12
aI13
aI13
aI13
aI5
aI1
aI-2
aI-1
aI3
aI2
aI-17
aI-5
aI-5
aI-5
aI-8
aI-9
aI-13
aI-14
aI-5
aI-6
aI-10
aI-30
aI-5
aI-1
aI-1
aI-5
aI-5
aI0
aI0
aI1
aI1
aI0
aI0
aI0
aI0
aI0
aI0
aI-6
aI-6
aI-2
aI-2
aI-1
aI-1
aI-2
aI-2
aI-6
aI-6
aI-7
aI-9
aI-9
aI-6
aI-7
aI-11
aI-6
aI2
aI-2
aI2
aI1
aI5
aI3
aI4
aI11
aI12
aI11
aI11
aI14
aI13
aI8
aI3
aI1
aI-1
aI-2
aI1
aI-15
aI-5
aI-6
aI-10
aI-8
aI-8
aI-9
aI-13
aI-3
aI0
aI-1
aI-2
aI-30
aI-5
aI-1
aI-1
aI-5
aI-5
aI0
aI0
aI0
aI1
aI0
aI0
aI0
aI0
aI0
aI0
aI-6
aI-6
aI-2
aI-1
aI-1
aI-1
aI-2
aI-2
aI-5
aI-7
aI-7
aI-9
aI-9
aI-7
aI-10
aI-12
aI-5
aI0
aI1
aI-1
aI2
aI3
aI10
aI9
aI11
aI12
aI5
aI5
aI6
aI5
aI7
aI1
aI-2
aI-1
aI-1
aI-7
aI-4
aI-7
aI-20
aI-7
aI-11
aI-11
aI-5
aI-20
aI-13
aI-5
aI-8
aI-10
aI-12
aI-4
aI0
aI0
aI-4
aI-4
aI0
aI0
aI0
aI0
aI1
aI1
aI1
aI1
aI1
aI1
aI-6
aI-6
aI-1
aI-2
aI-1
aI-2
aI-2
aI-2
aI-2
aI-6
aI-10
aI-10
aI-7
aI-7
aI-10
aI-4
aI3
aI-2
aI-4
aI3
aI2
aI6
aI3
aI5
aI14
aI11
aI5
aI7
aI6
aI1
aI2
aI0
aI-2
aI-5
aI-1
aI-9
aI-4
aI-7
aI-4
aI-6
aI-9
aI-14
aI-5
aI-13
aI-6
aI-2
aI-2
aI-5
aI-8
aI0
aI-4
aI-4
aI0
aI0
aI0
aI-4
aI0
aI0
aI1
aI1
aI0
aI0
aI0
aI0
aI-6
aI-5
aI-1
aI-2
aI-1
aI-2
aI-2
aI-2
aI-5
aI-4
aI-10
aI-7
aI-6
aI-6
aI-7
aI3
aI3
aI-3
aI-1
aI4
aI3
aI6
aI9
aI4
aI5
aI5
aI5
aI5
aI6
aI0
aI6
aI0
aI-5
aI-2
aI-4
aI-10
aI-2
aI-1
aI-2
aI-2
aI-3
aI-4
aI-4
aI-9
aI-6
aI-1
aI-4
aI-7
aI-6
aI0
aI-5
aI-1
aI-1
aI-1
aI-1
aI-1
aI0
aI0
aI0
aI0
aI0
aI0
aI0
aI0
aI-1
aI4
aI-3
aI0
aI-3
aI5
aI1
aI3
aI-4
aI-4
aI-1
aI0
aI-2
aI-2
aI-2
aI3
aI3
aI3
aI3
aI1
aI1
aI5
aI2
aI1
aI3
aI3
aI0
aI2
aI1
aI4
aI1
aI-4
aI-2
aI-11
aI0
aI-3
aI-6
aI-2
aI-4
aI-5
aI-9
aI-8
aI-5
aI-2
aI-3
aI0
aI-3
aI-3
aI-8
aI-4
aI-1
aI-1
aI-1
aI-1
aI-5
aI-1
aI0
aI0
aI0
aI0
aI0
aI0
aI0
aI0
aI5
aI5
aI5
aI3
aI5
aI4
aI5
aI7
aI3
aI3
aI5
aI5
aI5
aI5
aI5
aI12
aI5
aI5
aI4
aI3
aI6
aI1
aI2
aI2
aI4
aI2
aI-3
aI3
aI1
aI-6
aI-8
aI-10
aI-6
aI-4
aI-10
aI-5
aI-5
aI-9
aI-2
aI-3
aI-7
aI-10
aI-1
aI3
aI-4
aI3
aI-2
aI-7
aI-4
aI0
aI0
aI0
aI0
aI0
aI0
aI0
aI1
aI1
aI1
aI1
aI1
aI0
aI0
aI0
aI5
aI5
aI5
aI3
aI5
aI5
aI5
aI5
aI5
aI5
aI5
aI5
aI5
aI5
aI5
aI11
aI2
aI2
aI5
aI6
aI4
aI3
aI4
aI2
aI4
aI6
aI1
aI1
aI4
aI0
aI1
aI-1
aI-2
aI3
aI6
aI3
aI3
aI2
aI-9
aI-6
aI1
aI-2
aI1
aI-6
aI0
aI-3
aI4
aI-4
aI-2
aI1
aI1
aI0
aI1
aI0
aI1
aI0
aI1
aI1
aI1
aI1
aI1
aI1
aI1
aI1
aI5
aI5
aI5
aI3
aI5
aI5
aI5
aI5
aI5
aI2
aI5
aI5
aI5
aI5
aI5
aI11
aI1
aI4
aI4
aI6
aI5
aI4
aI4
aI4
aI6
aI6
aI1
aI1
aI1
aI1
aI-1
aI-1
aI-6
aI3
aI8
aI3
aI1
aI2
aI3
aI3
aI2
aI4
aI7
aI0
aI6
aI-3
aI5
aI4
aI-2
aI1
aI0
aI0
aI1
aI1
aI1
aI1
aI1
aI1
aI1
aI1
aI1
aI1
aI1
aI1
aI5
aI5
aI5
aI3
aI5
aI5
aI5
aI5
aI5
aI-1
aI5
aI5
aI5
aI5
aI5
aI11
aI1
aI0
aI4
aI7
aI5
aI3
aI4
aI3
aI-5
aI3
aI2
aI-1
aI0
aI2
aI1
aI-1
aI-5
aI2
aI8
aI1
aI2
aI2
aI3
aI3
aI4
aI5
aI5
aI6
aI4
aI2
aI5
aI-8
aI-4
aI0
aI0
aI0
aI1
aI0
aI0
aI1
aI1
aI1
aI1
aI1
aI1
aI1
aI1
aI1
aI5
aI5
aI5
aI3
aI5
aI5
aI5
aI5
aI1
aI2
aI5
aI5
aI5
aI5
aI5
aI11
aI1
aI1
aI5
aI8
aI3
aI3
aI3
aI3
aI-1
aI3
aI-1
aI-1
aI0
aI2
aI0
aI-1
aI-2
aI2
aI1
aI1
aI3
aI2
aI2
aI3
aI7
aI3
aI10
aI3
aI5
aI-1
aI2
aI7
aI-2
aI0
aI1
aI1
aI0
aI1
aI0
aI0
aI1
aI1
aI1
aI1
aI1
aI1
aI1
aI1
aI5
aI5
aI5
aI5
aI3
aI5
aI5
aI7
aI3
aI6
aI5
aI5
aI5
aI5
aI5
aI11
aI1
aI3
aI3
aI5
aI8
aI4
aI3
aI3
aI0
aI3
aI-1
aI0
aI-1
aI0
aI-1
aI-2
aI-2
aI1
aI1
aI2
aI4
aI3
aI5
aI4
aI7
aI3
aI6
aI2
aI4
aI1
aI5
aI-6
aI1
aI0
aI1
aI0
aI1
aI1
aI0
aI0
aI1
aI1
aI1
aI1
aI1
aI1
aI1
aI1
aI5
aI5
aI5
aI5
aI3
aI5
aI7
aI7
aI1
aI4
aI5
aI5
aI5
aI5
aI5
aI17
aI2
aI1
aI5
aI6
aI8
aI4
aI5
aI3
aI0
aI2
aI-1
aI0
aI-1
aI0
aI-1
aI-2
aI-2
aI1
aI2
aI3
aI3
aI5
aI5
aI11
aI12
aI9
aI13
aI5
aI5
aI10
aI4
aI6
aI4
aI1
aI0
aI0
aI1
aI1
aI1
aI1
aI1
aI1
aI1
aI1
aI1
aI1
aI1
aI1
aI5
aI5
aI5
aI5
aI-1
aI5
aI7
aI7
aI5
aI3
aI5
aI5
aI5
aI5
aI5
aI20
aI7
aI3
aI5
aI9
aI11
aI3
aI-13
aI4
aI-9
aI-7
aI-10
aI-10
aI-12
aI-4
aI0
aI-4
aI-20
aI-2
aI-24
aI-13
aI-5
aI-11
aI1
aI2
aI-1
aI5
aI5
aI4
aI9
aI-4
aI2
aI5
aI7
aI1
aI0
aI1
aI1
aI0
aI0
aI1
aI1
aI1
aI1
aI1
aI1
aI1
aI1
aI1
aI5
aI5
aI5
aI5
aI-1
aI1
aI7
aI7
aI5
aI1
aI5
aI5
aI5
aI5
aI5
aI23
aI8
aI-1
aI7
aI4
aI12
aI8
aI-19
aI-16
aI-14
aI-15
aI-7
aI-13
aI5
aI2
aI9
aI3
aI-4
aI-8
aI-4
aI-8
aI-3
aI-3
aI-1
aI-6
aI5
aI1
aI8
aI8
aI7
aI-2
aI4
aI4
aI8
aI1
aI1
aI1
aI1
aI1
aI1
aI1
aI1
aI1
aI1
aI1
aI1
aI1
aI1
aI1
aI5
aI5
aI5
aI5
aI-1
aI-1
aI7
aI7
aI5
aI5
aI5
aI5
aI5
aI5
aI5
aI29
aI-1
aI2
aI7
aI10
aI13
aI14
aI-22
aI-22
aI-17
aI-12
aI-10
aI-11
aI4
aI2
aI10
aI2
aI-2
aI-9
aI-4
aI-4
aI-3
aI-6
aI-2
aI-2
aI6
aI8
aI6
aI6
aI-4
aI-6
aI2
aI-6
aI6
aI1
aI1
aI1
aI1
aI1
aI1
aI1
aI1
aI1
aI1
aI1
aI1
aI1
aI1
aI1
aI3
aI3
aI5
aI5
aI1
aI1
aI5
aI5
aI5
aI5
aI-1
aI3
aI3
aI5
aI5
aI19
aI13
aI10
aI16
aI13
aI14
aI8
aI-7
aI-7
aI-5
aI-6
aI-5
aI-7
aI-3
aI-6
aI-7
aI4
aI-5
aI-5
aI-6
aI-5
aI0
aI1
aI-6
aI-6
aI-2
aI-4
aI-5
aI-8
aI-14
aI-5
aI2
aI-2
aI7
aI1
aI1
aI1
aI1
aI1
aI1
aI1
aI1
aI1
aI1
aI1
aI1
aI1
aI1
aI1
aI3
aI3
aI5
aI5
aI5
aI1
aI5
aI5
aI5
aI5
aI-1
aI-1
aI3
aI3
aI3
aI7
aI10
aI0
aI9
aI13
aI11
aI9
aI-6
aI-5
aI-4
aI-5
aI-6
aI2
aI-3
aI-3
aI-2
aI5
aI14
aI-2
aI1
aI-6
aI0
aI0
aI-5
aI0
aI4
aI-2
aI-1
aI-9
aI-21
aI-19
aI-2
aI-5
aI3
aI1
aI1
aI1
aI1
aI1
aI1
aI1
aI1
aI1
aI1
aI1
aI1
aI1
aI1
aI1
aI3
aI3
aI3
aI3
aI5
aI1
aI5
aI5
aI5
aI5
aI-1
aI-1
aI5
aI5
aI5
aI5
aI-11
aI-2
aI2
aI4
aI-4
aI-6
aI-6
aI-7
aI3
aI2
aI2
aI6
aI-8
aI-8
aI-10
aI4
aI11
aI-3
aI-2
aI1
aI12
aI10
aI5
aI-2
aI-4
aI1
aI15
aI8
aI13
aI10
aI17
aI17
aI11
aI1
aI1
aI1
aI1
aI1
aI1
aI1
aI1
aI1
aI1
aI1
aI1
aI1
aI1
aI1
aI3
aI3
aI3
aI3
aI5
aI1
aI1
aI5
aI5
aI5
aI-1
aI1
aI5
aI5
aI5
aI-5
aI-6
aI-7
aI-4
aI-2
aI-5
aI-6
aI-6
aI-6
aI3
aI2
aI2
aI5
aI-8
aI-7
aI-10
aI0
aI4
aI-5
aI-10
aI-1
aI0
aI7
aI-1
aI-5
aI-9
aI-1
aI15
aI10
aI13
aI4
aI11
aI6
aI5
aI1
aI1
aI1
aI1
aI1
aI1
aI1
aI1
aI1
aI1
aI1
aI1
aI1
aI1
aI1
aI3
aI3
aI3
aI3
aI5
aI5
aI7
aI7
aI5
aI5
aI1
aI1
aI5
aI5
aI5
aI-2
aI11
aI9
aI0
aI0
aI1
aI0
aI-7
aI-6
aI1
aI0
aI15
aI17
aI3
aI6
aI-5
aI-5
aI5
aI-2
aI-6
aI-2
aI-5
aI-6
aI-17
aI-14
aI0
aI5
aI1
aI-3
aI3
aI-2
aI6
aI1
aI7
aI1
aI1
aI1
aI1
aI1
aI1
aI1
aI1
aI1
aI1
aI1
aI1
aI1
aI1
aI1
aI3
aI3
aI3
aI3
aI5
aI5
aI7
aI7
aI5
aI5
aI1
aI1
aI5
aI5
aI5
aI-3
aI11
aI9
aI0
aI6
aI1
aI0
aI-7
aI-7
aI0
aI0
aI16
aI17
aI2
aI6
aI-10
aI-12
aI2
aI-2
aI-5
aI-2
aI-7
aI-6
aI-17
aI-17
aI-1
aI2
aI1
aI-3
aI1
aI-2
aI5
aI0
aI15
aI1
aI1
aI1
aI1
aI1
aI1
aI1
aI1
aI1
aI1
aI1
aI1
aI1
aI1
aI1
asbag0
(g8
g2
Ntp24
Rp25
(dp26
g12
I50
sg13
I4096
sg14
(lp27
I0
aI0
aI0
aI0
aI5
aI5
aI5
aI5
aI0
aI0
aI5
aI5
aI5
aI5
aI5
aI1
aI9
aI9
aI1
aI-1
aI12
aI9
aI13
aI15
aI8
aI12
aI12
aI13
aI12
aI14
aI8
aI-11
aI-6
aI5
aI-4
aI1
aI5
aI2
aI-12
aI-12
aI-2
aI-2
aI-5
aI-14
aI-8
aI-10
aI-3
aI-10
aI-10
aI-3
aI-3
aI-3
aI-3
aI-3
aI-7
aI-5
aI-5
aI-5
aI-2
aI-2
aI-1
aI-2
aI0
aI0
aI0
aI0
aI0
aI0
aI5
aI5
aI5
aI5
aI0
aI0
aI5
aI5
aI5
aI5
aI5
aI-4
aI-1
aI9
aI1
aI0
aI12
aI10
aI13
aI14
aI12
aI14
aI12
aI13
aI14
aI13
aI8
aI-9
aI5
aI5
aI-2
aI-7
aI8
aI2
aI-5
aI-5
aI-3
aI-2
aI-5
aI-14
aI-7
aI-10
aI-3
aI-9
aI-3
aI-3
aI-3
aI-3
aI-3
aI-3
aI-7
aI-5
aI-5
aI-5
aI-2
aI-2
aI-1
aI-2
aI0
aI0
aI0
aI0
aI0
aI0
aI0
aI0
aI0
aI0
aI0
aI0
aI0
aI5
aI5
aI5
aI5
aI2
aI-4
aI-5
aI-4
aI-5
aI10
aI1
aI9
aI5
aI5
aI12
aI13
aI15
aI12
aI10
aI3
aI3
aI3
aI0
aI0
aI-5
aI9
aI-2
aI-11
aI-11
aI5
aI5
aI-11
aI-20
aI-7
aI-12
aI-6
aI-9
aI-2
aI-3
aI-3
aI-3
aI-6
aI-6
aI-5
aI-3
aI-3
aI-5
aI-5
aI-1
aI-1
aI-2
aI-1
aI-1
aI0
aI0
aI0
aI1
aI0
aI0
aI0
aI0
aI0
aI0
aI0
aI0
aI6
aI5
aI5
aI1
aI-10
aI-5
aI-1
aI-3
aI4
aI3
aI14
aI8
aI14
aI18
aI17
aI3
aI8
aI2
aI7
aI7
aI-6
aI-2
aI-2
aI-3
aI10
aI5
aI0
aI-4
aI5
aI5
aI-11
aI-26
aI-17
aI-15
aI-3
aI-11
aI-1
aI-3
aI-3
aI-3
aI-4
aI-4
aI-5
aI-3
aI-3
aI-5
aI-5
aI-5
aI0
aI1
aI0
aI0
aI0
aI0
aI0
aI1
aI1
aI0
aI0
aI0
aI0
aI0
aI0
aI0
aI1
aI0
aI0
aI3
aI-3
aI5
aI-9
aI-7
aI-4
aI-6
aI20
aI8
aI6
aI8
aI8
aI6
aI11
aI8
aI8
aI1
aI-7
aI5
aI7
aI6
aI3
aI4
aI1
aI2
aI-9
aI-8
aI1
aI-8
aI4
aI2
aI0
aI-5
aI-4
aI-2
aI0
aI0
aI0
aI0
aI-3
aI-3
aI-3
aI-3
aI-4
aI-4
aI-3
aI-4
aI-4
aI-6
aI0
aI0
aI0
aI1
aI1
aI0
aI0
aI0
aI0
aI0
aI0
aI1
aI0
aI5
aI5
aI-15
aI-8
aI-11
aI-10
aI-4
aI-9
aI-20
aI1
aI5
aI0
aI2
aI0
aI8
aI8
aI7
aI9
aI-8
aI-18
aI-5
aI0
aI1
aI-11
aI3
aI-2
aI-2
aI-11
aI-8
aI4
aI7
aI-9
aI-3
aI3
aI5
aI-7
aI-3
aI-1
aI0
aI0
aI0
aI-3
aI-3
aI-3
aI-3
aI-4
aI-6
aI-5
aI-2
aI-2
aI-2
aI5
aI5
aI5
aI6
aI1
aI0
aI5
aI5
aI0
aI0
aI6
aI5
aI5
aI5
aI5
aI-7
aI11
aI11
aI16
aI19
aI9
aI9
aI-1
aI-3
aI-13
aI-9
aI-1
aI9
aI16
aI13
aI6
aI-3
aI4
aI8
aI9
aI4
aI1
aI4
aI-5
aI3
aI13
aI22
aI13
aI1
aI0
aI-10
aI-13
aI-12
aI-11
aI-2
aI-2
aI-1
aI-2
aI-2
aI-2
aI0
aI-7
aI-7
aI0
aI-2
aI-1
aI-2
aI-2
aI-2
aI5
aI5
aI5
aI6
aI0
aI5
aI5
aI5
aI0
aI0
aI5
aI5
aI5
aI5
aI5
aI-12
aI14
aI11
aI16
aI19
aI9
aI10
aI6
aI-2
aI10
aI11
aI9
aI4
aI13
aI13
aI6
aI6
aI1
aI8
aI10
aI1
aI2
aI5
aI7
aI-5
aI6
aI21
aI15
aI3
aI5
aI0
aI5
aI0
aI-16
aI-2
aI-2
aI-2
aI-2
aI-2
aI-2
aI-2
aI-6
aI-7
aI-2
aI-2
aI-1
aI-2
aI-2
aI-2
aI5
aI5
aI5
aI5
aI0
aI5
aI5
aI5
aI5
aI-2
aI3
aI5
aI5
aI3
aI5
aI-6
aI12
aI-1
aI9
aI6
aI-8
aI13
aI27
aI-3
aI-12
aI33
aI20
aI-1
aI18
aI21
aI15
aI17
aI-19
aI10
aI22
aI-2
aI6
aI-3
aI20
aI-10
aI-1
aI9
aI9
aI-4
aI-25
aI-14
aI8
aI-7
aI-2
aI-3
aI-4
aI-4
aI-10
aI-7
aI-5
aI-2
aI-2
aI-6
aI-2
aI-2
aI-1
aI-2
aI-3
aI-3
aI5
aI5
aI6
aI5
aI0
aI5
aI5
aI5
aI3
aI3
aI5
aI5
aI5
aI3
aI3
aI14
aI8
aI4
aI20
aI2
aI8
aI-2
aI-3
aI0
aI32
aI28
aI3
aI-2
aI1
aI6
aI2
aI4
aI-7
aI-10
aI-8
aI-2
aI17
aI-4
aI-3
aI-21
aI4
aI-4
aI5
aI16
aI15
aI6
aI-45
aI4
aI-5
aI-10
aI-4
aI-3
aI-5
aI-2
aI-5
aI-6
aI-2
aI-2
aI-2
aI-2
aI-1
aI-2
aI-3
aI-3
aI5
aI5
aI6
aI5
aI0
aI5
aI5
aI5
aI3
aI5
aI5
aI3
aI3
aI5
aI5
aI0
aI12
aI8
aI6
aI3
aI3
aI5
aI8
aI9
aI12
aI4
aI7
aI5
aI5
aI6
aI0
aI-14
aI12
aI-12
aI-24
aI-27
aI-15
aI-9
aI9
aI13
aI-25
aI-21
aI-11
aI2
aI10
aI7
aI-23
aI-13
aI-2
aI-11
aI-7
aI-3
aI-6
aI-3
aI-4
aI-9
aI-2
aI-2
aI-2
aI-2
aI-2
aI-3
aI-3
aI-3
aI5
aI5
aI6
aI0
aI5
aI5
aI5
aI5
aI5
aI5
aI3
aI3
aI5
aI5
aI3
aI-10
aI16
aI15
aI9
aI5
aI5
aI3
aI7
aI4
aI-9
aI8
aI8
aI-6
aI2
aI20
aI16
aI-1
aI-9
aI11
aI20
aI-4
aI-22
aI-12
aI-14
aI-9
aI10
aI-10
aI-18
aI-23
aI-24
aI-12
aI-11
aI-2
aI-1
aI-5
aI-7
aI-5
aI-6
aI-4
aI-3
aI-11
aI-2
aI-2
aI-2
aI-2
aI-2
aI-3
aI-3
aI-3
aI5
aI5
aI6
aI0
aI5
aI5
aI5
aI5
aI5
aI3
aI3
aI5
aI5
aI3
aI3
aI-9
aI9
aI14
aI9
aI4
aI5
aI2
aI5
aI17
aI22
aI22
aI21
aI18
aI-2
aI-15
aI-3
aI13
aI-13
aI-22
aI-25
aI-33
aI5
aI7
aI-4
aI-19
aI-15
aI1
aI4
aI-8
aI-26
aI-19
aI-4
aI2
aI-6
aI-7
aI-6
aI-9
aI-4
aI-3
aI-2
aI-5
aI-2
aI-2
aI-2
aI-2
aI-1
aI-3
aI-3
aI-3
aI5
aI5
aI6
aI0
aI5
aI5
aI5
aI5
aI5
aI-2
aI5
aI5
aI3
aI3
aI5
aI4
aI10
aI9
aI8
aI3
aI3
aI16
aI19
aI15
aI8
aI-10
aI-11
aI8
aI6
aI-18
aI4
aI12
aI11
aI12
aI8
aI-3
aI9
aI-7
aI-7
aI15
aI-22
aI-13
aI-11
aI-3
aI-15
aI-15
aI-13
aI-18
aI2
aI-3
aI-5
aI-7
aI-9
aI-10
aI-5
aI-3
aI-2
aI-2
aI-1
aI-2
aI-2
aI-2
aI-3
aI-3
aI5
aI5
aI6
aI0
aI5
aI5
aI5
aI5
aI5
aI-2
aI5
aI5
aI3
aI5
aI5
aI4
aI3
aI9
aI7
aI2
aI4
aI15
aI17
aI16
aI-8
aI16
aI13
aI10
aI14
aI14
aI8
aI-3
aI2
aI7
aI11
aI-6
aI-1
aI15
aI13
aI-8
aI-1
aI2
aI-10
aI-9
aI4
aI-13
aI-15
aI12
aI2
aI-7
aI-5
aI-7
aI-8
aI-9
aI-9
aI-4
aI-2
aI-2
aI-1
aI-2
aI-2
aI-2
aI-3
aI-3
aI3
aI3
aI6
aI0
aI3
aI3
aI3
aI5
aI5
aI-4
aI1
aI1
aI3
aI3
aI1
aI8
aI0
aI8
aI4
aI4
aI0
aI-1
aI0
aI0
aI0
aI0
aI6
aI3
aI4
aI2
aI4
aI-3
aI-2
aI4
aI-1
aI0
aI1
aI10
aI1
aI-3
aI2
aI1
aI0
aI0
aI2
aI-8
aI-9
aI-7
aI-20
aI0
aI0
aI1
aI-5
aI-5
aI-11
aI-9
aI6
aI4
aI7
aI-1
aI-2
aI-4
aI-6
aI2
aI2
aI-3
aI-2
aI3
aI3
aI3
aI4
aI4
aI2
aI-4
aI1
aI1
aI1
aI3
aI1
aI22
aI-3
aI8
aI-2
aI-3
aI-1
aI-5
aI-3
aI-5
aI-17
aI-7
aI-6
aI-3
aI-3
aI7
aI-12
aI-8
aI-3
aI1
aI-18
aI0
aI3
aI-1
aI1
aI-2
aI-1
aI0
aI0
aI-1
aI-1
aI-14
aI-13
aI-2
aI-32
aI0
aI0
aI0
aI1
aI-8
aI-10
aI3
aI5
aI4
aI5
aI5
aI-5
aI5
aI5
aI3
aI1
aI-4
aI-2
aI3
aI4
aI4
aI3
aI4
aI1
aI-4
aI1
aI1
aI1
aI1
aI1
aI25
aI3
aI-7
aI2
aI1
aI-1
aI0
aI-1
aI1
aI-4
aI-2
aI1
aI4
aI-2
aI-11
aI-33
aI2
aI-3
aI1
aI-2
aI-10
aI3
aI3
aI1
aI1
aI2
aI2
aI1
aI1
aI0
aI1
aI-11
aI0
aI-19
aI3
aI2
aI1
aI4
aI3
aI-1
aI5
aI6
aI5
aI4
aI4
aI-5
aI5
aI1
aI1
aI1
aI1
aI-2
aI3
aI4
aI4
aI3
aI4
aI2
aI-4
aI1
aI1
aI1
aI1
aI1
aI32
aI5
aI3
aI-1
aI-1
aI-3
aI-1
aI-7
aI0
aI7
aI1
aI5
aI4
aI-2
aI-12
aI-19
aI-2
aI8
aI8
aI-22
aI-3
aI5
aI5
aI2
aI2
aI3
aI4
aI3
aI3
aI1
aI1
aI0
aI-1
aI-39
aI4
aI1
aI1
aI4
aI3
aI-1
aI5
aI6
aI7
aI4
aI4
aI-5
aI5
aI1
aI1
aI1
aI1
aI3
aI-2
aI4
aI4
aI3
aI3
aI2
aI-4
aI1
aI1
aI1
aI1
aI1
aI23
aI-3
aI10
aI0
aI1
aI-1
aI0
aI1
aI-12
aI-1
aI-6
aI4
aI-16
aI-30
aI-5
aI-16
aI-3
aI-8
aI0
aI1
aI-4
aI15
aI6
aI2
aI2
aI3
aI2
aI3
aI3
aI1
aI2
aI1
aI0
aI-2
aI2
aI3
aI4
aI2
aI1
aI-9
aI6
aI6
aI8
aI4
aI4
aI-5
aI6
aI5
aI5
aI1
aI1
aI3
aI3
aI4
aI4
aI3
aI3
aI1
aI1
aI1
aI1
aI1
aI1
aI1
aI14
aI2
aI-1
aI1
aI5
aI-1
aI-2
aI-10
aI1
aI7
aI-5
aI-19
aI0
aI0
aI2
aI-3
aI8
aI-4
aI1
aI6
aI-5
aI2
aI8
aI7
aI2
aI5
aI3
aI7
aI3
aI6
aI1
aI1
aI2
aI16
aI3
aI4
aI2
aI4
aI5
aI-9
aI1
aI7
aI8
aI5
aI7
aI-5
aI4
aI5
aI5
aI1
aI1
aI3
aI3
aI-1
aI4
aI3
aI3
aI1
aI1
aI2
aI1
aI1
aI1
aI1
aI-6
aI5
aI-1
aI0
aI3
aI-4
aI-5
aI-11
aI-11
aI-5
aI-13
aI-7
aI-6
aI-5
aI-2
aI-9
aI-14
aI10
aI0
aI-7
aI6
aI9
aI13
aI12
aI12
aI5
aI7
aI8
aI11
aI11
aI1
aI8
aI7
aI37
aI2
aI4
aI4
aI3
aI2
aI-3
aI3
aI7
aI7
aI5
aI5
aI-3
aI6
aI5
aI5
aI1
aI1
aI3
aI3
aI4
aI-1
aI3
aI3
aI1
aI1
aI-4
aI2
aI2
aI1
aI1
aI-8
aI4
aI-15
aI1
aI-2
aI-12
aI-19
aI-8
aI-11
aI-12
aI2
aI-9
aI-20
aI0
aI13
aI-12
aI-7
aI3
aI4
aI2
aI-6
aI9
aI9
aI7
aI6
aI8
aI11
aI3
aI11
aI0
aI1
aI9
aI8
aI23
aI1
aI5
aI5
aI3
aI2
aI-2
aI8
aI7
aI7
aI7
aI7
aI-3
aI6
aI5
aI5
aI1
aI1
aI3
aI3
aI4
aI4
aI-2
aI3
aI1
aI1
aI-4
aI1
aI1
aI2
aI1
aI-32
aI3
aI-7
aI-7
aI-13
aI-7
aI-5
aI-5
aI-3
aI4
aI4
aI-6
aI-17
aI0
aI9
aI0
aI9
aI-9
aI5
aI-4
aI0
aI5
aI4
aI16
aI9
aI6
aI4
aI3
aI5
aI9
aI7
aI4
aI10
aI31
aI3
aI2
aI4
aI6
aI3
aI0
aI4
aI8
aI7
aI7
aI-4
aI0
aI7
aI7
aI7
aI1
aI1
aI3
aI3
aI4
aI4
aI-2
aI-2
aI1
aI1
aI1
aI-4
aI-4
aI2
aI2
aI-55
aI-4
aI-14
aI-14
aI-16
aI-41
aI-39
aI2
aI4
aI-4
aI12
aI7
aI0
aI-7
aI-21
aI0
aI-11
aI-2
aI8
aI2
aI5
aI4
aI8
aI6
aI0
aI3
aI4
aI6
aI1
aI6
aI5
aI6
aI2
aI25
aI6
aI6
aI6
aI7
aI7
aI11
aI11
aI5
aI4
aI9
aI-2
aI2
aI8
aI5
aI3
aI1
aI1
aI3
aI3
aI4
aI4
aI-2
aI-2
aI1
aI1
aI1
aI1
aI-4
aI-4
aI-4
aI-71
aI-6
aI-4
aI-25
aI-7
aI-45
aI-35
aI10
aI5
aI-5
aI8
aI-19
aI9
aI-4
aI-22
aI7
aI-1
aI3
aI2
aI5
aI-8
aI3
aI5
aI0
aI2
aI2
aI3
aI3
aI6
aI3
aI2
aI3
aI-2
aI34
aI4
aI5
aI3
aI7
aI7
aI11
aI12
aI5
aI4
aI10
aI-2
aI1
aI6
aI3
aI3
aI1
aI1
aI3
aI3
aI4
aI4
aI-1
aI-1
aI-3
aI-3
aI1
aI2
aI2
aI2
aI2
aI-73
aI-9
aI-5
aI-19
aI-8
aI-18
aI7
aI1
aI-13
aI-14
aI-20
aI15
aI17
aI3
aI0
aI10
aI12
aI5
aI-2
aI0
aI1
aI4
aI-2
aI5
aI6
aI5
aI5
aI2
aI3
aI3
aI3
aI0
aI-1
aI35
aI4
aI6
aI7
aI5
aI5
aI1
aI11
aI9
aI8
aI4
aI-5
aI-2
aI5
aI1
aI1
aI1
aI1
aI5
aI3
aI4
aI4
aI-1
aI-1
aI-3
aI-3
aI2
aI2
aI2
aI2
aI2
aI-63
aI-9
aI9
aI-4
aI-32
aI6
aI-7
aI-2
aI-13
aI-13
aI-9
aI17
aI7
aI-1
aI14
aI5
aI-1
aI-10
aI-3
aI0
aI4
aI2
aI-3
aI-2
aI-3
aI7
aI2
aI5
aI-1
aI2
aI-13
aI-1
aI-1
aI7
aI5
aI5
aI1
aI11
aI11
aI2
aI6
aI7
aI8
aI3
aI-7
aI-4
aI3
aI1
aI1
aI-3
aI-3
aI1
aI-1
aI-2
aI-2
aI-2
aI-2
aI-3
aI-4
aI-3
aI-4
aI-3
aI-4
aI-3
aI-66
aI-7
aI-6
aI-10
aI-13
aI-22
aI-6
aI-8
aI-9
aI-20
aI14
aI25
aI26
aI19
aI1
aI-17
aI7
aI1
aI-17
aI-2
aI-2
aI-2
aI-3
aI-3
aI-3
aI-2
aI-2
aI-1
aI3
aI2
aI-12
aI13
aI-3
aI6
aI4
aI4
aI4
aI5
aI5
aI7
aI15
aI6
aI6
aI2
aI-10
aI-6
aI1
aI1
aI1
aI2
aI2
aI6
aI4
aI-2
aI-2
aI-2
aI-2
aI-4
aI-4
aI-4
aI-4
aI-4
aI-4
aI-4
aI-44
aI-4
aI-6
aI-16
aI-1
aI-12
aI-10
aI-8
aI-10
aI-4
aI5
aI16
aI15
aI-5
aI-19
aI-4
aI20
aI1
aI-3
aI1
aI-1
aI-1
aI-3
aI-3
aI-3
aI-2
aI-2
aI-1
aI-1
aI-1
aI-1
aI8
aI6
aI-14
aI4
aI5
aI4
aI4
aI-3
aI3
aI11
aI6
aI6
aI2
aI-6
aI-6
aI1
aI1
aI1
aI2
aI2
aI6
aI4
aI3
aI3
aI-2
aI-2
aI1
aI1
aI1
aI1
aI1
aI1
aI-4
aI-52
aI-4
aI-7
aI-6
aI10
aI-16
aI-14
aI2
aI0
aI-12
aI9
aI16
aI14
aI12
aI-1
aI-5
aI5
aI-2
aI-3
aI0
aI-2
aI-2
aI-3
aI-3
aI-3
aI-2
aI-2
aI-1
aI-1
aI-2
aI-1
aI-13
aI2
aI9
aI4
aI5
aI4
aI4
aI0
aI10
aI3
aI5
aI3
aI5
aI-3
aI-6
aI1
aI2
aI2
aI-3
aI-3
aI1
aI2
aI2
aI3
aI0
aI-2
aI1
aI0
aI0
aI0
aI0
aI-2
aI-7
aI-46
aI2
aI2
aI9
aI-5
aI-10
aI-16
aI15
aI-13
aI15
aI17
aI16
aI16
aI9
aI4
aI0
aI5
aI-3
aI-3
aI-3
aI0
aI-3
aI-3
aI-3
aI-3
aI-2
aI-2
aI-1
aI-1
aI-2
aI-1
aI-2
aI-10
aI-14
aI-3
aI-4
aI-5
aI-5
aI-10
aI-7
aI-1
aI3
aI0
aI3
aI-5
aI-13
aI1
aI1
aI1
aI9
aI2
aI0
aI-1
aI-7
aI-6
aI-8
aI-11
aI-1
aI0
aI6
aI7
aI8
aI2
aI-5
aI-53
aI0
aI-11
aI-21
aI-20
aI-15
aI-20
aI-6
aI-8
aI-16
aI8
aI20
aI18
aI4
aI10
aI13
aI-1
aI-3
aI9
aI-1
aI-2
aI-3
aI-3
aI-2
aI-3
aI-2
aI-2
aI-1
aI0
aI-2
aI-8
aI-2
aI-1
aI-2
aI0
aI0
aI3
aI-8
aI-8
aI-8
aI-5
aI-4
aI-5
aI-8
aI-7
aI-7
aI-1
aI-6
aI3
aI9
aI9
aI0
aI-2
aI-7
aI-6
aI-11
aI-10
aI1
aI0
aI7
aI9
aI1
aI3
aI-2
aI-44
aI-19
aI-9
aI-28
aI-23
aI10
aI-1
aI3
aI4
aI-12
aI0
aI14
aI12
aI6
aI6
aI13
aI2
aI-3
aI-2
aI-3
aI-3
aI-3
aI-3
aI-2
aI-3
aI-2
aI-2
aI6
aI5
aI4
aI0
aI1
aI1
aI16
aI-5
aI-5
aI-5
aI-6
aI-6
aI-5
aI-5
aI-4
aI-4
aI-8
aI-6
aI0
aI-1
aI-4
aI-4
aI9
aI9
aI-2
aI-2
aI-4
aI-3
aI-4
aI-4
aI-4
aI-7
aI6
aI4
aI4
aI4
aI4
aI-36
aI-28
aI-17
aI-21
aI-21
aI14
aI0
aI-10
aI-8
aI2
aI1
aI9
aI7
aI5
aI3
aI0
aI-9
aI-3
aI-8
aI-2
aI-3
aI-3
aI-3
aI-2
aI-3
aI-2
aI-2
aI6
aI-1
aI-2
aI7
aI-1
aI8
aI19
aI-5
aI-5
aI-5
aI-5
aI-6
aI-4
aI-5
aI-4
aI-4
aI-8
aI-6
aI0
aI1
aI-2
aI-2
aI7
aI6
aI-4
aI-5
aI-2
aI-3
aI-4
aI-4
aI-6
aI-5
aI5
aI5
aI2
aI4
aI2
aI-18
aI-26
aI-16
aI-19
aI-24
aI9
aI11
aI1
aI-7
aI-5
aI7
aI6
aI13
aI-1
aI2
aI14
aI-7
aI-3
aI2
aI-1
aI-1
aI-2
aI-2
aI-2
aI-3
aI-2
aI-2
aI1
aI0
aI2
aI9
aI15
aI0
aI35
aI-5
aI-5
aI-5
aI-5
aI-5
aI-3
aI-5
aI-4
aI-4
aI-8
aI-5
aI0
aI-1
aI-2
aI-2
aI6
aI6
aI-1
aI1
aI1
aI0
aI-3
aI-1
aI-4
aI-6
aI6
aI4
aI6
aI6
aI5
aI-14
aI-3
aI-8
aI-7
aI-11
aI10
aI0
aI-6
aI-16
aI6
aI5
aI9
aI5
aI-8
aI-2
aI-5
aI-7
aI-20
aI2
aI-2
aI-14
aI4
aI-3
aI-3
aI-3
aI-2
aI4
aI1
aI3
aI0
aI8
aI-3
aI-1
aI12
aI-6
aI-5
aI-5
aI-5
aI-5
aI-3
aI-5
aI-4
aI-4
aI-10
aI-7
aI2
aI-1
aI-3
aI-3
aI7
aI7
aI1
aI0
aI0
aI0
aI-3
aI-3
aI-4
aI-4
aI5
aI3
aI5
aI1
aI3
aI-20
aI1
aI-7
aI3
aI-18
aI-27
aI-10
aI-6
aI-28
aI-14
aI-13
aI-6
aI15
aI-6
aI4
aI-16
aI-17
aI-4
aI-1
aI-2
aI-14
aI4
aI-3
aI-1
aI-5
aI-2
aI-2
aI3
aI3
aI-1
aI-4
aI-2
aI-2
aI-12
aI-6
aI-5
aI-5
aI-5
aI-5
aI-4
aI-5
aI-3
aI-4
aI-9
aI-7
aI2
aI0
aI-3
aI-3
aI0
aI0
aI-7
aI-7
aI-1
aI0
aI0
aI0
aI0
aI4
aI4
aI4
aI-1
aI-4
aI0
aI-10
aI-5
aI-5
aI-2
aI-21
aI-25
aI-31
aI-19
aI1
aI-12
aI7
aI10
aI9
aI-3
aI-25
aI-24
aI-21
aI-3
aI3
aI-17
aI-3
aI1
aI-1
aI-3
aI-3
aI-2
aI4
aI3
aI13
aI0
aI2
aI4
aI-1
aI6
aI-6
aI-5
aI-5
aI-5
aI-5
aI-4
aI-4
aI-4
aI-4
aI-9
aI-7
aI0
aI-2
aI-5
aI-5
aI0
aI0
aI-7
aI-7
aI-1
aI-1
aI0
aI0
aI5
aI-2
aI2
aI-1
aI-3
aI3
aI1
aI-27
aI-21
aI-13
aI-14
aI-27
aI-31
aI-29
aI-25
aI-33
aI-18
aI-3
aI18
aI9
aI-1
aI-1
aI-5
aI-20
aI-22
aI-8
aI-12
aI-2
aI-3
aI-3
aI-3
aI-3
aI-1
aI11
aI13
aI1
aI0
aI7
aI4
aI3
aI5
aI-6
aI-5
aI-5
aI-5
aI-5
aI-4
aI-10
aI-4
aI-4
aI-9
aI-9
aI0
aI-2
aI-5
aI-5
aI4
aI4
aI-7
aI-7
aI-1
aI-2
aI-6
aI3
aI5
aI-5
aI19
aI5
aI12
aI12
aI17
aI-14
aI-9
aI-4
aI2
aI-31
aI-13
aI-15
aI25
aI0
aI-31
aI-11
aI-20
aI-14
aI-25
aI-22
aI-50
aI-29
aI-19
aI-2
aI-16
aI4
aI-14
aI-3
aI-5
aI4
aI6
aI9
aI2
aI0
aI0
aI0
aI-2
aI-2
aI0
aI-6
aI-5
aI6
aI6
aI-6
aI-5
aI7
aI-8
aI-8
aI-9
aI-9
aI-7
aI-9
aI-5
aI-5
aI4
aI4
aI-7
aI-7
aI-2
aI-4
aI-3
aI-3
aI1
aI14
aI7
aI9
aI11
aI8
aI8
aI-1
aI9
aI2
aI7
aI8
aI7
aI-3
aI-9
aI-4
aI5
aI17
aI-5
aI11
aI-18
aI-9
aI-38
aI-11
aI-19
aI1
aI-2
aI0
aI-23
aI-3
aI-3
aI-1
aI8
aI6
aI-1
aI1
aI0
aI0
aI-3
aI-2
aI-3
aI5
aI-5
aI-4
aI7
aI-6
aI-5
aI-4
aI-8
aI-8
aI-9
aI-7
aI-7
aI-9
aI-5
aI-5
aI4
aI4
aI-3
aI-3
aI-5
aI-2
aI-3
aI-4
aI18
aI17
aI8
aI8
aI10
aI0
aI1
aI6
aI6
aI9
aI-1
aI9
aI3
aI1
aI-4
aI11
aI-17
aI-14
aI-1
aI-12
aI-20
aI-13
aI-26
aI-27
aI-9
aI-3
aI2
aI-15
aI-9
aI-2
aI4
aI-2
aI-2
aI1
aI0
aI2
aI11
aI1
aI-2
aI0
aI14
aI5
aI-5
aI-5
aI7
aI6
aI-3
aI-5
aI-9
aI-10
aI-8
aI-7
aI-7
aI-7
aI-10
aI-10
aI3
aI3
aI-4
aI4
aI-1
aI-2
aI-4
aI-2
aI17
aI18
aI10
aI9
aI9
aI1
aI11
aI3
aI6
aI8
aI11
aI8
aI9
aI-5
aI-1
aI5
aI-21
aI-20
aI-7
aI-12
aI-9
aI-31
aI-15
aI-14
aI-10
aI-2
aI5
aI-12
aI2
aI-2
aI3
aI3
aI2
aI1
aI1
aI4
aI1
aI1
aI-2
aI-1
aI3
aI6
aI-5
aI-5
aI5
aI6
aI-5
aI-5
aI-5
aI-10
aI-9
aI-6
aI-5
aI-8
aI-10
aI-10
aI3
aI3
aI-4
aI-3
aI-1
aI-7
aI-4
aI-4
aI11
aI17
aI10
aI8
aI11
aI9
aI16
aI2
aI8
aI6
aI8
aI11
aI8
aI4
aI-4
aI-18
aI-12
aI-8
aI8
aI7
aI-2
aI-9
aI-14
aI-4
aI-2
aI-2
aI3
aI-3
aI-2
aI5
aI7
aI1
aI0
aI-1
aI1
aI8
aI5
aI4
aI0
aI-2
aI0
aI6
aI-5
aI-5
aI5
aI6
aI-4
aI-5
aI-5
aI-5
aI-9
aI-6
aI-7
aI-8
aI-10
aI-10
aI3
aI3
aI-9
aI2
aI-2
aI-3
aI-4
aI-4
aI-6
aI2
aI19
aI17
aI13
aI11
aI17
aI8
aI6
aI5
aI8
aI10
aI9
aI5
aI18
aI-3
aI-15
aI-13
aI6
aI-5
aI-15
aI-1
aI-12
aI-2
aI-3
aI2
aI-2
aI0
aI1
aI2
aI-2
aI-3
aI-1
aI0
aI1
aI4
aI2
aI3
aI-3
aI0
aI0
aI-5
aI6
aI7
aI-4
aI-2
aI-3
aI6
aI-5
aI-5
aI-9
aI-7
aI-7
aI-8
aI-10
aI-10
aI3
aI-2
aI-7
aI2
aI-2
aI-3
aI-4
aI-4
aI0
aI-5
aI20
aI11
aI1
aI0
aI10
aI7
aI11
aI11
aI11
aI7
aI4
aI4
aI-1
aI0
aI-1
aI1
aI4
aI3
aI-17
aI-2
aI-14
aI-3
aI5
aI-2
aI1
aI1
aI-3
aI-3
aI-3
aI-3
aI-2
aI-1
aI4
aI3
aI3
aI1
aI-2
aI1
aI3
aI-4
aI6
aI-5
aI-5
aI-2
aI-3
aI-5
aI-5
aI-5
aI-9
aI-7
aI-7
aI-8
aI-10
aI-10
aI-1
aI-13
aI-6
aI-2
aI-2
aI-8
aI-2
aI-6
aI10
aI10
aI11
aI5
aI5
aI3
aI2
aI19
aI-4
aI-4
aI-4
aI-4
aI-1
aI-3
aI-1
aI-3
aI-8
aI-6
aI7
aI2
aI-16
aI-11
aI-1
aI8
aI5
aI1
aI-19
aI-1
aI0
aI-3
aI-2
aI0
aI3
aI0
aI4
aI0
aI1
aI1
aI0
aI3
aI14
aI5
aI-7
aI-6
aI-6
aI-3
aI7
aI-6
aI-6
aI-6
aI-10
aI-6
aI-7
aI-8
aI-11
aI-11
aI-11
aI-12
aI-3
aI-4
aI-1
aI-1
aI-2
aI-3
aI2
aI-8
aI-5
aI-11
aI-12
aI-10
aI-12
aI5
aI3
aI1
aI0
aI0
aI-1
aI2
aI-3
aI-14
aI-13
aI3
aI1
aI-1
aI-8
aI1
aI1
aI6
aI-2
aI-1
aI-3
aI5
aI3
aI8
aI1
aI-1
aI-2
aI7
aI1
aI4
aI7
aI2
aI-2
aI2
aI3
aI-5
aI-5
aI-4
aI-1
aI-3
aI0
aI-5
aI-6
aI-4
aI-5
aI-5
aI-4
aI-6
aI-3
aI-7
aI-2
aI-2
aI-2
aI-2
aI-1
aI-1
aI-1
aI-2
aI-2
aI-2
aI-2
aI-2
aI-2
aI-2
aI-2
aI8
aI-3
aI0
aI-2
aI4
aI7
aI3
aI-1
aI-1
aI-1
aI-1
aI-2
aI0
aI-8
aI-1
aI1
aI-3
aI-3
aI-3
aI-2
aI-6
aI3
aI-1
aI6
aI1
aI2
aI7
aI-1
aI-4
aI6
aI6
aI-9
aI15
aI8
aI-3
aI-3
aI1
aI-2
aI2
aI0
aI1
aI-1
aI-1
aI-1
aI-1
aI0
aI-1
aI-1
aI-1
aI-2
aI-2
aI-2
aI-2
aI-1
aI-1
aI-1
aI-2
aI-2
aI1
aI-2
aI-2
aI-2
aI-2
aI-2
aI8
aI-1
aI2
aI0
aI3
aI6
aI4
aI4
aI0
aI-1
aI-1
aI0
aI0
aI-2
aI-1
aI3
aI-6
aI-3
aI-1
aI-6
aI-1
aI0
aI-1
aI8
aI0
aI3
aI-1
aI-10
aI4
aI-4
aI9
aI-8
aI-1
aI8
aI-1
aI2
aI2
aI-2
aI-3
aI-1
aI-3
aI-1
aI-1
aI-1
aI-1
aI0
aI-1
aI-1
aI-1
aI-2
aI-2
aI-2
aI-2
aI-1
aI-4
aI-1
aI-2
aI0
aI0
aI-2
aI-2
aI-2
aI-2
aI-2
aI15
aI0
aI2
aI1
aI1
aI6
aI4
aI4
aI3
aI3
aI2
aI-1
aI3
aI1
aI-4
aI-4
aI-2
aI-6
aI1
aI-18
aI1
aI-2
aI1
aI5
aI-6
aI-1
aI-17
aI10
aI-8
aI-2
aI-7
aI-13
aI-3
aI29
aI3
aI4
aI2
aI-4
aI1
aI3
aI-1
aI-1
aI-1
aI-1
aI-1
aI0
aI-1
aI-1
aI-1
aI-2
aI-2
aI-2
aI-2
aI-1
aI-1
aI-1
aI-2
aI2
aI-1
aI-2
aI-2
aI-2
aI-2
aI-2
aI15
aI0
aI4
aI-2
aI-2
aI4
aI4
aI4
aI3
aI1
aI2
aI1
aI1
aI-2
aI-4
aI-1
aI-5
aI-3
aI-3
aI4
aI0
aI2
aI10
aI4
aI-2
aI-13
aI4
aI-7
aI-1
aI10
aI3
aI-1
aI-9
aI24
aI1
aI-1
aI-3
aI1
aI-1
aI2
aI4
aI-1
aI-1
aI-1
aI-1
aI0
aI-1
aI-1
aI-1
aI-2
aI-2
aI-2
aI-2
aI-4
aI-2
aI-1
aI-1
aI4
aI-5
aI-2
aI-2
aI-2
aI-2
aI-2
aI27
aI1
aI0
aI3
aI4
aI1
aI2
aI4
aI3
aI2
aI2
aI1
aI1
aI1
aI1
aI1
aI-2
aI-3
aI1
aI3
aI4
aI1
aI7
aI1
aI-10
aI-10
aI10
aI6
aI-5
aI9
aI-3
aI-13
aI0
aI11
aI1
aI-2
aI1
aI-4
aI-1
aI4
aI2
aI-1
aI-1
aI-1
aI-1
aI0
aI-1
aI-1
aI-1
aI-2
aI-2
aI-4
aI-4
aI-4
aI-2
aI-1
aI-1
aI4
aI1
aI-2
aI-2
aI-2
aI-2
aI-2
aI35
aI2
aI10
aI4
aI4
aI4
aI6
aI0
aI3
aI2
aI2
aI2
aI1
aI1
aI1
aI1
aI-2
aI-2
aI1
aI2
aI4
aI6
aI-7
aI4
aI-18
aI-10
aI-4
aI-1
aI14
aI24
aI-11
aI15
aI-20
aI10
aI-2
aI2
aI1
aI-2
aI-1
aI0
aI-4
aI-1
aI-1
aI-1
aI-1
aI0
aI-1
aI-1
aI-1
aI-2
aI-2
aI-4
aI-4
aI0
aI-2
aI-1
aI1
aI1
aI4
aI-2
aI-2
aI-2
aI-2
aI-2
aI17
aI-3
aI5
aI0
aI-7
aI-6
aI-4
aI2
aI8
aI5
aI7
aI12
aI4
aI6
aI4
aI2
aI-1
aI6
aI8
aI15
aI25
aI-2
aI7
aI11
aI7
aI8
aI-2
aI-7
aI-7
aI-2
aI8
aI3
aI-10
aI20
aI-1
aI2
aI-1
aI-1
aI2
aI3
aI-1
aI-1
aI-1
aI-1
aI-1
aI-1
aI-1
aI-1
aI-1
aI-4
aI-4
aI-4
aI-4
aI0
aI2
aI1
aI2
aI-1
aI3
aI-1
aI-2
aI-2
aI-2
aI-2
aI20
aI9
aI7
aI14
aI14
aI-3
aI4
aI-4
aI-9
aI-3
aI17
aI-8
aI-19
aI-9
aI-14
aI-16
aI-24
aI-21
aI-5
aI-2
aI-4
aI3
aI-7
aI2
aI-2
aI-2
aI-2
aI8
aI0
aI-6
aI13
aI8
aI-6
aI22
aI-1
aI-1
aI-1
aI-1
aI-1
aI1
aI0
aI-1
aI-1
aI-1
aI-1
aI-1
aI-1
aI-1
aI-1
aI-4
aI-4
aI-4
aI-4
aI0
aI0
aI1
aI2
aI-1
aI-1
aI-1
aI-1
aI-1
aI-2
aI-1
aI-4
aI5
aI3
aI10
aI5
aI0
aI4
aI-2
aI2
aI-2
aI1
aI-24
aI-23
aI-18
aI-7
aI-23
aI-17
aI-9
aI-2
aI0
aI-5
aI1
aI-10
aI-5
aI-13
aI-13
aI-2
aI6
aI2
aI13
aI16
aI7
aI8
aI2
aI-1
aI-1
aI-1
aI-1
aI-1
aI1
aI0
aI-1
aI-1
aI-1
aI-1
aI-1
aI-1
aI-1
aI-1
aI-4
aI-4
aI-3
aI-4
aI0
aI0
aI-4
aI-4
aI-4
aI-4
aI0
aI-4
aI-4
aI-1
aI-1
aI6
aI-20
aI-1
aI7
aI3
aI3
aI-3
aI7
aI7
aI8
aI-2
aI-20
aI-4
aI-6
aI-1
aI-12
aI-16
aI-10
aI8
aI11
aI11
aI12
aI1
aI-6
aI-4
aI6
aI20
aI2
aI19
aI20
aI24
aI-1
aI16
aI-17
aI-1
aI-1
aI-1
aI-1
aI0
aI1
aI0
aI0
aI0
aI-1
aI-1
aI0
aI0
aI-1
aI-1
aI-4
aI-4
aI-3
aI-4
aI-4
aI0
aI-4
aI-4
aI-4
aI-4
aI0
aI0
aI-4
aI-3
aI-4
aI7
aI-17
aI-16
aI-16
aI4
aI11
aI-4
aI10
aI5
aI9
aI10
aI-7
aI-28
aI-5
aI2
aI-12
aI4
aI-5
aI2
aI2
aI13
aI9
aI6
aI-6
aI-5
aI1
aI8
aI-17
aI-1
aI5
aI13
aI-5
aI0
aI-22
aI-1
aI-1
aI-1
aI-1
aI0
aI1
aI0
aI0
aI0
aI-1
aI-1
aI0
aI0
aI-1
aI-1
aI-1
aI-1
aI-4
aI-4
aI-4
aI0
aI-4
aI-4
aI-4
aI-4
aI2
aI2
aI0
aI0
aI0
aI6
aI22
aI21
aI13
aI24
aI25
aI19
aI15
aI16
aI4
aI1
aI-12
aI-24
aI9
aI10
aI24
aI-25
aI-21
aI-4
aI-10
aI-11
aI-14
aI-4
aI-5
aI1
aI-3
aI3
aI-1
aI-3
aI-14
aI-20
aI-34
aI-33
aI-12
aI-1
aI-1
aI-1
aI-1
aI0
aI1
aI0
aI0
aI0
aI-1
aI-1
aI0
aI0
aI-1
aI-1
aI-1
aI-1
aI-4
aI-4
aI-4
aI0
aI0
aI-4
aI-4
aI-4
aI2
aI4
aI0
aI0
aI1
aI19
aI9
aI16
aI16
aI12
aI24
aI15
aI13
aI16
aI2
aI-3
aI-16
aI-37
aI-7
aI-6
aI5
aI-36
aI-23
aI7
aI4
aI-10
aI24
aI11
aI10
aI11
aI3
aI2
aI-3
aI-14
aI-24
aI-9
aI-21
aI-15
aI-12
aI-1
aI-1
aI-1
aI-1
aI0
aI1
aI0
aI0
aI0
aI-1
aI-1
aI0
aI0
aI-1
aI-1
aI-1
aI-1
aI-4
aI-4
aI-4
aI-4
aI-4
aI-4
aI-2
aI-2
aI4
aI4
aI-2
aI-2
aI-2
aI24
aI4
aI2
aI1
aI-15
aI2
aI2
aI10
aI14
aI2
aI-4
aI-15
aI-22
aI-16
aI-20
aI0
aI-12
aI-6
aI9
aI12
aI15
aI0
aI3
aI8
aI-1
aI14
aI1
aI13
aI13
aI24
aI11
aI8
aI15
aI-24
aI-1
aI-1
aI-1
aI-1
aI-1
aI1
aI0
aI0
aI0
aI-1
aI-1
aI0
aI0
aI-1
aI-1
aI-1
aI-1
aI-4
aI-4
aI-4
aI-4
aI-4
aI-4
aI-2
aI-2
aI4
aI4
aI-2
aI-2
aI-2
aI23
aI2
aI1
aI1
aI2
aI2
aI2
aI10
aI13
aI1
aI0
aI-11
aI-22
aI-20
aI-20
aI3
aI-4
aI-24
aI3
aI11
aI15
aI9
aI3
aI10
aI8
aI9
aI14
aI13
aI14
aI11
aI11
aI2
aI9
aI-18
aI-1
aI-1
aI-1
aI-1
aI-1
aI1
aI0
aI0
aI0
aI-1
aI-1
aI0
aI0
aI-1
aI-1
asbag0
(g8
g2
Ntp28
Rp29
(dp30
g12
I50
sg13
I4096
sg14
(lp31
I0
aI0
aI0
aI0
aI0
aI0
aI0
aI0
aI0
aI0
aI0
aI0
aI0
aI0
aI0
aI-1
aI-2
aI-2
aI-4
aI-4
aI-4
aI-4
aI0
aI-3
aI0
aI0
aI-2
aI-2
aI-2
aI-2
aI-3
aI-2
aI3
aI3
aI2
aI2
aI0
aI0
aI2
aI3
aI2
aI1
aI2
aI1
aI3
aI2
aI3
aI1
aI-1
aI-1
aI-1
aI-1
aI-1
aI-1
aI0
aI0
aI-1
aI-1
aI-1
aI-1
aI1
aI0
aI0
aI0
aI0
aI0
aI0
aI0
aI0
aI0
aI0
aI0
aI0
aI0
aI0
aI0
aI0
aI0
aI0
aI-1
aI-1
aI-2
aI-4
aI-4
aI-4
aI-4
aI-1
aI-2
aI-1
aI-1
aI-2
aI-2
aI-2
aI-2
aI-3
aI-3
aI1
aI2
aI1
aI1
aI-1
aI-2
aI0
aI0
aI5
aI2
aI2
aI1
aI2
aI2
aI3
aI1
aI-1
aI-1
aI-1
aI-1
aI-1
aI-1
aI0
aI0
aI-1
aI-1
aI-1
aI-1
aI1
aI0
aI0
aI0
aI0
aI0
aI0
aI0
aI0
aI0
aI0
aI0
aI0
aI0
aI0
aI0
aI0
aI0
aI0
aI-1
aI0
aI-1
aI-3
aI-3
aI-3
aI-1
aI-2
aI-2
aI-4
aI-4
aI-1
aI0
aI-1
aI-2
aI-2
aI-3
aI3
aI2
aI2
aI0
aI-1
aI3
aI4
aI3
aI2
aI2
aI4
aI3
aI2
aI1
aI2
aI1
aI0
aI-1
aI-1
aI-1
aI-1
aI0
aI0
aI0
aI0
aI0
aI0
aI0
aI1
aI0
aI0
aI0
aI0
aI0
aI0
aI1
aI0
aI0
aI0
aI0
aI0
aI0
aI0
aI0
aI1
aI0
aI0
aI0
aI-1
aI-1
aI-3
aI-1
aI0
aI-1
aI-2
aI-2
aI-2
aI-3
aI1
aI-1
aI-1
aI-2
aI0
aI-3
aI4
aI2
aI3
aI1
aI-1
aI-1
aI3
aI3
aI5
aI3
aI4
aI4
aI0
aI1
aI1
aI2
aI2
aI-1
aI-1
aI-1
aI0
aI0
aI0
aI0
aI0
aI0
aI0
aI0
aI1
aI0
aI0
aI0
aI0
aI0
aI0
aI1
aI1
aI0
aI0
aI0
aI0
aI0
aI0
aI0
aI1
aI0
aI0
aI0
aI-1
aI-1
aI-1
aI-2
aI-2
aI-2
aI-2
aI-3
aI-3
aI-5
aI-4
aI-3
aI-3
aI-3
aI-3
aI-3
aI2
aI1
aI0
aI1
aI0
aI0
aI0
aI2
aI3
aI1
aI3
aI2
aI2
aI2
aI1
aI-1
aI-1
aI0
aI0
aI0
aI0
aI0
aI0
aI0
aI0
aI0
aI0
aI0
aI1
aI0
aI0
aI0
aI0
aI0
aI0
aI1
aI1
aI0
aI0
aI0
aI0
aI0
aI0
aI1
aI0
aI0
aI0
aI0
aI-3
aI-3
aI-2
aI-2
aI-2
aI-3
aI-2
aI-5
aI-5
aI-5
aI-3
aI-4
aI-4
aI-2
aI0
aI0
aI4
aI2
aI2
aI1
aI0
aI0
aI0
aI2
aI3
aI4
aI4
aI3
aI1
aI2
aI2
aI0
aI1
aI-1
aI-1
aI0
aI0
aI0
aI0
aI0
aI0
aI0
aI0
aI0
aI1
aI0
aI0
aI0
aI0
aI0
aI0
aI1
aI1
aI0
aI0
aI0
aI0
aI0
aI1
aI0
aI0
aI0
aI0
aI-2
aI-5
aI-5
aI-5
aI-5
aI-6
aI-6
aI-1
aI-4
aI-4
aI-4
aI-4
aI-4
aI-3
aI-3
aI-3
aI2
aI5
aI3
aI2
aI2
aI-2
aI1
aI3
aI2
aI1
aI4
aI5
aI3
aI0
aI2
aI3
aI2
aI3
aI-1
aI-1
aI-1
aI-1
aI-1
aI0
aI0
aI-1
aI-1
aI0
aI0
aI0
aI-1
aI-1
aI-1
aI0
aI0
aI0
aI1
aI0
aI0
aI0
aI0
aI0
aI0
aI0
aI0
aI0
aI0
aI0
aI-2
aI-5
aI-6
aI-6
aI-5
aI-6
aI-4
aI-3
aI-4
aI-3
aI-3
aI-4
aI-4
aI-3
aI-3
aI-3
aI0
aI3
aI2
aI3
aI3
aI2
aI3
aI3
aI3
aI5
aI4
aI5
aI4
aI3
aI1
aI2
aI2
aI2
aI-1
aI-1
aI-1
aI-1
aI-1
aI0
aI-1
aI-1
aI-1
aI-1
aI0
aI0
aI-1
aI-1
aI-1
aI0
aI0
aI0
aI0
aI0
aI0
aI0
aI0
aI0
aI0
aI0
aI0
aI0
aI0
aI0
aI-2
aI-4
aI-5
aI-5
aI-6
aI-7
aI-5
aI-4
aI-3
aI-8
aI-4
aI-2
aI-4
aI-6
aI-6
aI-6
aI-1
aI0
aI0
aI2
aI2
aI0
aI1
aI3
aI4
aI2
aI3
aI5
aI2
aI3
aI2
aI2
aI-1
aI3
aI-2
aI-1
aI-2
aI-1
aI-1
aI-1
aI-2
aI-1
aI-1
aI-1
aI0
aI0
aI-1
aI-1
aI-1
aI0
aI0
aI1
aI0
aI0
aI0
aI0
aI0
aI0
aI0
aI0
aI0
aI0
aI0
aI0
aI-4
aI-5
aI-4
aI-6
aI-8
aI-7
aI-6
aI-5
aI-5
aI-4
aI-5
aI-4
aI-4
aI-4
aI-6
aI-5
aI-1
aI0
aI1
aI0
aI-1
aI1
aI0
aI1
aI-1
aI5
aI1
aI1
aI3
aI3
aI0
aI2
aI1
aI0
aI-3
aI-3
aI-3
aI-3
aI-2
aI-1
aI-2
aI-1
aI-1
aI-1
aI-1
aI1
aI-1
aI-1
aI-1
aI0
aI0
aI1
aI0
aI0
aI0
aI0
aI0
aI0
aI0
aI0
aI0
aI0
aI0
aI0
aI-4
aI-3
aI-4
aI-3
aI-5
aI-7
aI-6
aI-4
aI-4
aI-6
aI-3
aI-7
aI-7
aI-7
aI-6
aI-3
aI-1
aI0
aI2
aI-1
aI0
aI2
aI1
aI0
aI2
aI3
aI6
aI4
aI4
aI3
aI1
aI0
aI0
aI1
aI-2
aI-1
aI-2
aI-2
aI-1
aI-1
aI-2
aI-1
aI-1
aI-1
aI-1
aI1
aI-1
aI-1
aI-1
aI0
aI0
aI1
aI0
aI0
aI0
aI0
aI0
aI0
aI0
aI0
aI0
aI0
aI0
aI0
aI-5
aI-4
aI-4
aI-4
aI-4
aI-6
aI-7
aI-5
aI-4
aI-5
aI-5
aI-6
aI-6
aI-3
aI-5
aI-6
aI-1
aI0
aI0
aI0
aI2
aI2
aI1
aI0
aI2
aI-2
aI0
aI4
aI1
aI0
aI1
aI3
aI-2
aI2
aI-3
aI-2
aI-2
aI-2
aI-2
aI0
aI-2
aI-1
aI-1
aI-1
aI-1
aI1
aI-1
aI-1
aI-1
aI0
aI0
aI1
aI0
aI0
aI0
aI0
aI0
aI0
aI0
aI0
aI0
aI0
aI0
aI0
aI-5
aI-5
aI-4
aI-3
aI-4
aI-6
aI-7
aI-5
aI-4
aI-6
aI-6
aI-6
aI-6
aI-3
aI-4
aI-4
aI2
aI3
aI3
aI2
aI5
aI1
aI0
aI2
aI-1
aI2
aI4
aI3
aI2
aI4
aI2
aI1
aI2
aI2
aI-2
aI-3
aI-2
aI-2
aI-3
aI-1
aI-2
aI-1
aI-1
aI-1
aI-1
aI1
aI-1
aI-1
aI-1
aI0
aI0
aI1
aI0
aI0
aI0
aI0
aI0
aI0
aI0
aI0
aI0
aI0
aI0
aI0
aI-5
aI-4
aI-3
aI-5
aI-5
aI-7
aI-4
aI-5
aI-5
aI-6
aI-4
aI-6
aI-6
aI-7
aI-7
aI-7
aI-3
aI0
aI-3
aI-1
aI-2
aI0
aI2
aI0
aI1
aI1
aI2
aI2
aI2
aI2
aI2
aI2
aI0
aI1
aI-1
aI-2
aI-2
aI-2
aI-2
aI-2
aI-2
aI-1
aI-1
aI-1
aI-1
aI1
aI-1
aI-1
aI-1
aI0
aI0
aI1
aI0
aI0
aI0
aI0
aI0
aI0
aI0
aI0
aI0
aI0
aI0
aI0
aI-5
aI-5
aI-4
aI-5
aI-4
aI-6
aI-5
aI-4
aI-4
aI-7
aI-5
aI-4
aI-2
aI-6
aI-5
aI-3
aI0
aI3
aI1
aI1
aI-1
aI4
aI3
aI1
aI2
aI3
aI4
aI3
aI5
aI4
aI0
aI2
aI1
aI2
aI-1
aI-2
aI-2
aI-1
aI-2
aI-3
aI-3
aI-1
aI-1
aI-1
aI-1
aI1
aI-1
aI-1
aI-1
aI0
aI0
aI1
aI0
aI0
aI0
aI0
aI0
aI0
aI0
aI0
aI0
aI0
aI0
aI0
aI-2
aI-2
aI0
aI-1
aI-5
aI-3
aI-4
aI-5
aI-5
aI-4
aI-3
aI-2
aI-4
aI-3
aI-1
aI1
aI0
aI1
aI0
aI1
aI0
aI1
aI0
aI3
aI2
aI2
aI2
aI0
aI0
aI1
aI1
aI0
aI1
aI-1
aI-5
aI-5
aI-5
aI-5
aI-3
aI-4
aI-4
aI-2
aI-2
aI-2
aI-1
aI0
aI-1
aI-1
aI-2
aI1
aI1
aI0
aI0
aI0
aI0
aI1
aI1
aI1
aI0
aI0
aI0
aI0
aI0
aI0
aI1
aI-2
aI0
aI0
aI-1
aI-2
aI-1
aI-2
aI0
aI0
aI-1
aI-1
aI-1
aI-1
aI-1
aI-1
aI0
aI0
aI0
aI0
aI0
aI0
aI0
aI2
aI2
aI2
aI2
aI2
aI1
aI1
aI2
aI0
aI2
aI-1
aI-5
aI-5
aI-5
aI-4
aI-4
aI-2
aI-3
aI-3
aI-2
aI-3
aI-2
aI-2
aI-1
aI-2
aI-4
aI0
aI0
aI0
aI0
aI1
aI1
aI0
aI1
aI0
aI0
aI0
aI0
aI0
aI0
aI0
aI-2
aI-1
aI-1
aI0
aI-1
aI-1
aI-1
aI0
aI0
aI0
aI-1
aI-1
aI0
aI-1
aI-1
aI-1
aI0
aI0
aI1
aI0
aI0
aI0
aI0
aI1
aI1
aI1
aI2
aI1
aI2
aI0
aI1
aI0
aI0
aI-1
aI-4
aI-3
aI-4
aI-4
aI-3
aI-3
aI-3
aI-2
aI-1
aI-2
aI-2
aI-2
aI-1
aI-2
aI-2
aI0
aI0
aI0
aI0
aI1
aI1
aI0
aI1
aI1
aI0
aI0
aI0
aI0
aI0
aI0
aI-1
aI-1
aI-1
aI-1
aI-2
aI-3
aI-1
aI1
aI0
aI-1
aI-1
aI0
aI0
aI0
aI-1
aI0
aI1
aI0
aI1
aI0
aI2
aI1
aI1
aI1
aI1
aI2
aI4
aI2
aI2
aI0
aI1
aI0
aI0
aI1
aI-3
aI-4
aI-3
aI-3
aI-3
aI-3
aI-2
aI-2
aI0
aI-2
aI-2
aI-2
aI-1
aI-2
aI-2
aI0
aI0
aI0
aI0
aI1
aI1
aI0
aI0
aI1
aI0
aI0
aI0
aI0
aI0
aI0
aI-3
aI0
aI-1
aI-1
aI-1
aI0
aI-2
aI1
aI0
aI-1
aI-1
aI0
aI1
aI0
aI-1
aI1
aI0
aI1
aI1
aI0
aI1
aI1
aI1
aI1
aI1
aI1
aI3
aI3
aI3
aI0
aI1
aI0
aI0
aI-2
aI-4
aI-3
aI-3
aI-3
aI-3
aI-4
aI-2
aI-2
aI0
aI-2
aI-2
aI-2
aI0
aI-2
aI-2
aI0
aI0
aI0
aI0
aI1
aI1
aI0
aI0
aI0
aI0
aI0
aI0
aI0
aI0
aI0
aI-6
aI-1
aI-2
aI1
aI0
aI0
aI-3
aI1
aI0
aI-1
aI0
aI0
aI-1
aI-1
aI-1
aI0
aI1
aI2
aI2
aI2
aI2
aI3
aI3
aI3
aI2
aI3
aI3
aI3
aI1
aI1
aI2
aI2
aI3
aI-2
aI-3
aI-1
aI-3
aI-3
aI-4
aI-3
aI-3
aI-2
aI0
aI-2
aI-2
aI-2
aI0
aI-2
aI-2
aI0
aI0
aI0
aI0
aI1
aI1
aI0
aI0
aI0
aI0
aI1
aI0
aI0
aI0
aI0
aI-10
aI-3
aI-1
aI1
aI-2
aI-2
aI-2
aI1
aI-1
aI0
aI-1
aI-1
aI-1
aI0
aI-1
aI1
aI0
aI2
aI3
aI3
aI3
aI3
aI3
aI3
aI3
aI2
aI3
aI1
aI2
aI1
aI1
aI1
aI0
aI0
aI-2
aI-2
aI-4
aI-3
aI-2
aI-2
aI-3
aI-2
aI-2
aI-2
aI-2
aI-2
aI0
aI-2
aI-2
aI0
aI0
aI0
aI0
aI1
aI1
aI0
aI0
aI0
aI0
aI0
aI1
aI1
aI0
aI0
aI-7
aI-5
aI-5
aI-1
aI-1
aI-1
aI0
aI-1
aI-2
aI1
aI0
aI0
aI0
aI0
aI1
aI-1
aI0
aI2
aI1
aI-1
aI1
aI0
aI0
aI1
aI1
aI2
aI2
aI2
aI2
aI0
aI1
aI0
aI0
aI-3
aI-3
aI-3
aI-2
aI-3
aI-2
aI-2
aI-4
aI-2
aI-2
aI-2
aI-2
aI-2
aI-1
aI-2
aI-2
aI0
aI0
aI0
aI0
aI1
aI1
aI0
aI0
aI0
aI0
aI0
aI0
aI0
aI1
aI0
aI-3
aI-1
aI-3
aI-2
aI-2
aI-2
aI-1
aI-1
aI0
aI1
aI0
aI0
aI0
aI0
aI1
aI-1
aI1
aI2
aI-1
aI2
aI0
aI0
aI0
aI1
aI1
aI2
aI2
aI2
aI1
aI0
aI1
aI0
aI0
aI1
aI-2
aI-3
aI-2
aI-4
aI-4
aI-3
aI-2
aI-1
aI-2
aI-2
aI-2
aI-2
aI-2
aI-2
aI-2
aI0
aI0
aI0
aI0
aI1
aI1
aI0
aI0
aI0
aI0
aI0
aI0
aI0
aI1
aI1
aI-5
aI-1
aI-1
aI-1
aI-2
aI-1
aI-2
aI0
aI1
aI1
aI1
aI0
aI1
aI0
aI1
aI0
aI0
aI1
aI0
aI1
aI-2
aI0
aI0
aI1
aI0
aI0
aI1
aI2
aI1
aI0
aI1
aI0
aI0
aI4
aI-2
aI-2
aI-2
aI-2
aI-2
aI-2
aI-2
aI-1
aI-2
aI-2
aI-2
aI-2
aI-2
aI-2
aI-2
aI0
aI0
aI0
aI0
aI1
aI1
aI0
aI0
aI0
aI0
aI0
aI0
aI0
aI0
aI0
aI-2
aI-3
aI0
aI0
aI-1
aI-2
aI1
aI3
aI2
aI1
aI1
aI2
aI0
aI1
aI2
aI1
aI0
aI0
aI0
aI1
aI-2
aI0
aI0
aI0
aI1
aI0
aI1
aI1
aI1
aI0
aI1
aI1
aI0
aI0
aI-2
aI-2
aI-2
aI-2
aI-2
aI-2
aI-2
aI-1
aI-2
aI-2
aI-2
aI-1
aI-1
aI-2
aI-2
aI0
aI0
aI0
aI0
aI1
aI1
aI1
aI1
aI1
aI1
aI0
aI1
aI1
aI1
aI1
aI-2
aI0
aI1
aI2
aI0
aI0
aI1
aI2
aI0
aI0
aI0
aI-1
aI0
aI1
aI2
aI0
aI1
aI1
aI1
aI2
aI0
aI0
aI0
aI0
aI0
aI1
aI2
aI2
aI3
aI0
aI1
aI0
aI0
aI0
aI-2
aI-2
aI-2
aI-2
aI-2
aI-2
aI-2
aI-2
aI-2
aI-2
aI-2
aI-1
aI-1
aI-2
aI-2
aI0
aI0
aI0
aI0
aI1
aI1
aI1
aI1
aI1
aI1
aI1
aI1
aI1
aI1
aI1
aI-2
aI1
aI-1
aI3
aI0
aI1
aI0
aI2
aI0
aI0
aI0
aI0
aI0
aI0
aI2
aI0
aI1
aI0
aI-1
aI3
aI0
aI1
aI0
aI1
aI0
aI1
aI2
aI2
aI1
aI2
aI1
aI0
aI1
aI-1
aI-2
aI-2
aI-2
aI-2
aI-2
aI-2
aI-2
aI-2
aI-1
aI-2
aI-2
aI-2
aI-1
aI-2
aI-2
aI1
aI1
aI1
aI1
aI0
aI0
aI0
aI0
aI1
aI0
aI1
aI0
aI1
aI0
aI1
aI-5
aI0
aI0
aI2
aI-1
aI0
aI0
aI2
aI0
aI0
aI0
aI0
aI1
aI1
aI0
aI0
aI0
aI-2
aI0
aI2
aI0
aI0
aI1
aI1
aI0
aI0
aI1
aI1
aI1
aI0
aI1
aI1
aI0
aI-2
aI-2
aI-2
aI-2
aI-2
aI-2
aI-2
aI-2
aI-2
aI-1
aI-2
aI-2
aI-2
aI-1
aI-2
aI-2
aI1
aI1
aI1
aI1
aI0
aI0
aI0
aI0
aI0
aI0
aI0
aI0
aI0
aI0
aI0
aI-4
aI-1
aI-2
aI1
aI0
aI-1
aI-1
aI2
aI0
aI0
aI-1
aI0
aI1
aI1
aI1
aI0
aI0
aI-1
aI1
aI-1
aI0
aI0
aI0
aI0
aI0
aI0
aI1
aI1
aI1
aI0
aI1
aI0
aI1
aI-1
aI-2
aI-2
aI-2
aI-2
aI-2
aI-2
aI-2
aI-2
aI-1
aI-2
aI-2
aI-2
aI-1
aI-2
aI-2
aI1
aI1
aI1
aI1
aI0
aI0
aI0
aI0
aI0
aI0
aI0
aI0
aI0
aI0
aI0
aI-6
aI-1
aI-1
aI1
aI0
aI-1
aI-1
aI1
aI0
aI1
aI0
aI0
aI1
aI1
aI0
aI-1
aI0
aI0
aI0
aI2
aI0
aI0
aI0
aI0
aI0
aI0
aI1
aI1
aI1
aI0
aI1
aI0
aI0
aI-1
aI-2
aI-2
aI-2
aI-2
aI-2
aI-2
aI-2
aI-2
aI-2
aI-2
aI-2
aI-2
aI-1
aI-2
aI-2
aI1
aI0
aI0
aI1
aI-1
aI-2
aI-1
aI-2
aI-1
aI1
aI1
aI1
aI1
aI1
aI1
aI-2
aI0
aI0
aI2
aI1
aI-1
aI-1
aI1
aI0
aI0
aI0
aI0
aI0
aI0
aI1
aI0
aI0
aI0
aI0
aI1
aI1
aI0
aI0
aI0
aI0
aI0
aI1
aI1
aI1
aI0
aI1
aI0
aI-1
aI-1
aI-1
aI0
aI0
aI-1
aI-1
aI-1
aI-2
aI-2
aI-1
aI-1
aI-1
aI-1
aI-1
aI-1
aI-2
aI3
aI3
aI2
aI-1
aI-1
aI0
aI2
aI2
aI1
aI-1
aI3
aI3
aI2
aI2
aI3
aI2
aI1
aI1
aI3
aI2
aI2
aI1
aI1
aI2
aI0
aI1
aI-1
aI0
aI0
aI3
aI0
aI0
aI0
aI0
aI1
aI1
aI0
aI1
aI0
aI0
aI0
aI1
aI1
aI1
aI0
aI-1
aI1
aI1
aI1
aI2
aI0
aI2
aI1
aI1
aI1
aI2
aI1
aI1
aI0
aI-1
aI-1
aI0
aI0
aI0
aI3
aI3
aI2
aI2
aI-1
aI0
aI2
aI3
aI2
aI2
aI4
aI3
aI4
aI3
aI3
aI1
aI2
aI1
aI3
aI1
aI1
aI1
aI1
aI2
aI2
aI3
aI1
aI2
aI2
aI2
aI2
aI1
aI0
aI1
aI2
aI0
aI0
aI0
aI0
aI0
aI0
aI1
aI1
aI1
aI-2
aI1
aI2
aI1
aI1
aI0
aI3
aI2
aI0
aI0
aI2
aI2
aI2
aI2
aI0
aI0
aI-1
aI1
aI0
aI0
aI3
aI3
aI2
aI2
aI-1
aI0
aI3
aI3
aI3
aI3
aI2
aI3
aI4
aI3
aI3
aI2
aI3
aI3
aI3
aI2
aI1
aI1
aI2
aI3
aI2
aI3
aI3
aI3
aI2
aI3
aI3
aI0
aI0
aI0
aI2
aI0
aI0
aI0
aI0
aI0
aI0
aI1
aI1
aI1
aI-2
aI1
aI1
aI2
aI1
aI1
aI2
aI3
aI1
aI1
aI3
aI2
aI2
aI2
aI0
aI0
aI-1
aI0
aI0
aI0
aI2
aI3
aI2
aI2
aI-2
aI0
aI3
aI4
aI3
aI3
aI2
aI2
aI4
aI3
aI4
aI4
aI3
aI2
aI4
aI3
aI1
aI2
aI2
aI3
aI2
aI3
aI4
aI2
aI1
aI2
aI1
aI3
aI0
aI0
aI2
aI0
aI0
aI1
aI0
aI0
aI0
aI1
aI1
aI1
aI0
aI-1
aI2
aI3
aI0
aI2
aI0
aI1
aI0
aI2
aI3
aI2
aI2
aI2
aI0
aI-1
aI0
aI0
aI0
aI0
aI2
aI3
aI1
aI-2
aI-2
aI-1
aI3
aI2
aI2
aI4
aI2
aI3
aI2
aI2
aI3
aI5
aI3
aI2
aI3
aI2
aI1
aI1
aI2
aI3
aI3
aI3
aI1
aI3
aI3
aI0
aI2
aI2
aI1
aI1
aI2
aI0
aI0
aI0
aI0
aI0
aI0
aI1
aI1
aI1
aI1
aI2
aI1
aI2
aI0
aI1
aI0
aI0
aI1
aI2
aI3
aI4
aI2
aI2
aI0
aI-1
aI-2
aI0
aI0
aI0
aI2
aI2
aI-1
aI-2
aI-2
aI-1
aI2
aI3
aI3
aI3
aI3
aI4
aI3
aI4
aI3
aI5
aI2
aI2
aI3
aI1
aI1
aI2
aI2
aI2
aI2
aI5
aI3
aI2
aI0
aI3
aI3
aI2
aI0
aI1
aI2
aI1
aI1
aI0
aI0
aI0
aI0
aI1
aI1
aI2
aI0
aI1
aI0
aI1
aI1
aI1
aI1
aI1
aI2
aI1
aI1
aI1
aI2
aI2
aI-1
aI-1
aI-2
aI-1
aI0
aI0
aI1
aI1
aI0
aI-1
aI-1
aI-1
aI3
aI4
aI4
aI2
aI4
aI4
aI5
aI4
aI3
aI7
aI3
aI2
aI3
aI1
aI1
aI2
aI2
aI2
aI1
aI2
aI3
aI2
aI2
aI3
aI2
aI0
aI0
aI0
aI1
aI1
aI1
aI1
aI0
aI0
aI0
aI1
aI2
aI1
aI0
aI1
aI0
aI0
aI1
aI1
aI2
aI2
aI0
aI1
aI2
aI2
aI1
aI1
aI-1
aI-1
aI-1
aI-1
aI0
aI0
aI1
aI1
aI0
aI-1
aI-1
aI0
aI3
aI4
aI2
aI5
aI5
aI4
aI5
aI3
aI4
aI7
aI3
aI1
aI3
aI2
aI2
aI1
aI2
aI3
aI3
aI3
aI4
aI3
aI3
aI5
aI2
aI0
aI0
aI-3
aI1
aI2
aI0
aI0
aI0
aI0
aI0
aI1
aI1
aI1
aI0
aI1
aI1
aI0
aI1
aI2
aI2
aI1
aI1
aI2
aI2
aI2
aI1
aI1
aI-1
aI-1
aI-1
aI-1
aI0
aI0
aI1
aI1
aI0
aI-1
aI-1
aI2
aI3
aI4
aI3
aI4
aI3
aI4
aI3
aI3
aI4
aI6
aI5
aI3
aI3
aI2
aI2
aI2
aI3
aI4
aI2
aI5
aI3
aI3
aI4
aI5
aI3
aI0
aI0
aI0
aI0
aI1
aI1
aI0
aI0
aI0
aI0
aI2
aI1
aI1
aI0
aI1
aI0
aI1
aI0
aI2
aI2
aI2
aI1
aI1
aI2
aI1
aI1
aI1
aI-1
aI-1
aI-1
aI-1
aI0
aI0
aI1
aI1
aI0
aI-1
aI1
aI3
aI3
aI4
aI2
aI1
aI4
aI4
aI3
aI3
aI3
aI6
aI5
aI3
aI4
aI2
aI2
aI3
aI3
aI4
aI4
aI5
aI3
aI3
aI3
aI3
aI3
aI0
aI1
aI0
aI1
aI2
aI0
aI0
aI0
aI0
aI0
aI1
aI1
aI1
aI0
aI1
aI1
aI1
aI0
aI2
aI2
aI3
aI2
aI2
aI1
aI2
aI1
aI1
aI-1
aI-1
aI-1
aI-1
aI0
aI0
aI3
aI3
aI2
aI0
aI1
aI2
aI3
aI3
aI2
aI1
aI3
aI4
aI3
aI3
aI4
aI7
aI3
aI-1
aI2
aI1
aI2
aI2
aI1
aI2
aI2
aI2
aI3
aI2
aI2
aI3
aI1
aI0
aI1
aI1
aI2
aI0
aI0
aI0
aI0
aI0
aI0
aI1
aI1
aI1
aI0
aI1
aI1
aI1
aI1
aI2
aI2
aI2
aI2
aI1
aI2
aI3
aI2
aI2
aI-1
aI-1
aI-1
aI-1
aI0
aI0
aI3
aI4
aI2
aI0
aI1
aI2
aI3
aI2
aI4
aI3
aI2
aI3
aI4
aI4
aI2
aI6
aI4
aI2
aI3
aI2
aI2
aI2
aI2
aI3
aI2
aI4
aI3
aI3
aI3
aI3
aI2
aI2
aI2
aI1
aI1
aI0
aI0
aI0
aI0
aI0
aI0
aI1
aI1
aI1
aI0
aI1
aI1
aI1
aI-1
aI1
aI2
aI2
aI1
aI1
aI3
aI4
aI2
aI2
aI0
aI-1
aI-2
aI0
aI0
aI0
aI3
aI3
aI3
aI2
aI1
aI2
aI2
aI3
aI2
aI2
aI2
aI3
aI3
aI4
aI3
aI5
aI1
aI2
aI2
aI1
aI1
aI1
aI2
aI4
aI0
aI4
aI2
aI2
aI1
aI1
aI2
aI2
aI1
aI1
aI0
aI0
aI0
aI0
aI0
aI0
aI0
aI1
aI1
aI1
aI0
aI1
aI2
aI1
aI1
aI1
aI2
aI1
aI2
aI2
aI3
aI2
aI2
aI2
aI1
aI0
aI0
aI1
aI1
aI1
aI3
aI3
aI2
aI2
aI1
aI2
aI2
aI2
aI1
aI3
aI4
aI3
aI2
aI3
aI4
aI3
aI3
aI2
aI3
aI2
aI1
aI0
aI1
aI4
aI0
aI3
aI3
aI2
aI1
aI1
aI1
aI1
aI0
aI1
aI0
aI0
aI0
aI0
aI0
aI0
aI0
aI1
aI1
aI1
aI0
aI1
aI1
aI1
aI1
aI2
aI1
aI2
aI3
aI3
aI4
aI2
aI2
aI2
aI1
aI1
aI-1
aI0
aI0
aI0
aI3
aI3
aI2
aI2
aI1
aI2
aI2
aI2
aI4
aI3
aI3
aI2
aI4
aI4
aI2
aI3
aI1
aI2
aI2
aI1
aI1
aI0
aI2
aI3
aI-1
aI3
aI2
aI1
aI1
aI1
aI1
aI-1
aI0
aI0
aI0
aI0
aI0
aI0
aI0
aI0
aI0
aI1
aI1
aI1
aI0
aI1
aI1
aI1
aI1
aI1
aI3
aI2
aI1
aI1
aI2
aI2
aI2
aI2
aI0
aI0
aI-1
aI0
aI0
aI0
aI2
aI2
aI1
aI1
aI1
aI2
aI2
aI1
aI2
aI-1
aI2
aI2
aI2
aI3
aI3
aI4
aI2
aI-1
aI-3
aI-3
aI-1
aI-2
aI-2
aI-1
aI1
aI2
aI2
aI0
aI1
aI0
aI1
aI1
aI-2
aI0
aI0
aI0
aI0
aI0
aI0
aI0
aI1
aI1
aI0
aI0
aI-1
aI-1
aI2
aI1
aI2
aI-1
aI0
aI0
aI1
aI1
aI2
aI1
aI1
aI1
aI-1
aI-1
aI-1
aI0
aI-1
aI0
aI0
aI1
aI-1
aI1
aI-1
aI-1
aI-1
aI-2
aI-2
aI-2
aI-1
aI-1
aI1
aI1
aI1
aI-2
aI-4
aI-5
aI-4
aI-6
aI-5
aI-9
aI-7
aI-4
aI-3
aI-7
aI-4
aI-5
aI-7
aI-6
aI-4
aI-1
aI1
aI0
aI0
aI-2
aI0
aI0
aI1
aI0
aI0
aI1
aI0
aI1
aI-3
aI-3
aI0
aI-3
aI0
aI0
aI1
aI3
aI0
aI0
aI2
aI0
aI-1
aI-1
aI1
aI1
aI2
aI0
aI-1
aI-1
aI-1
aI-1
aI-1
aI-1
aI1
aI-1
aI-1
aI-1
aI-1
aI-1
aI-1
aI-1
aI-1
aI-1
aI-1
aI-8
aI-7
aI-6
aI-10
aI-9
aI-9
aI-9
aI-10
aI-10
aI-9
aI-10
aI-5
aI-6
aI-5
aI-4
aI-6
aI-1
aI0
aI1
aI-2
aI1
aI1
aI0
aI0
aI0
aI0
aI0
aI0
aI-1
aI0
aI-3
aI2
aI0
aI-4
aI0
aI-1
aI1
aI1
aI-1
aI1
aI1
aI-1
aI-1
aI0
aI0
aI1
aI0
aI0
aI0
aI-1
aI-1
aI-1
aI-1
aI1
aI-1
aI-1
aI-1
aI-1
aI-1
aI-1
aI-1
aI-1
aI-1
aI-1
aI-8
aI-7
aI-6
aI-10
aI-10
aI-10
aI-9
aI-9
aI-10
aI-6
aI-10
aI-7
aI-4
aI-6
aI-6
aI-4
aI1
aI0
aI0
aI-1
aI1
aI0
aI0
aI0
aI0
aI0
aI0
aI-1
aI1
aI1
aI-1
aI-1
aI0
aI-3
aI0
aI-1
aI-1
aI1
aI-1
aI1
aI0
aI-1
aI-1
aI0
aI0
aI1
aI0
aI0
aI0
aI-1
aI-1
aI-1
aI-1
aI1
aI0
aI-1
aI-1
aI-1
aI-1
aI-1
aI-1
aI-1
aI-1
aI-1
aI-10
aI-8
aI-6
aI-8
aI-10
aI-10
aI-9
aI-8
aI-10
aI-7
aI-8
aI-5
aI-6
aI-5
aI-5
aI-4
aI-1
aI1
aI1
aI-2
aI0
aI0
aI0
aI0
aI0
aI0
aI1
aI0
aI2
aI1
aI2
aI0
aI2
aI-1
aI1
aI0
aI0
aI0
aI1
aI1
aI-1
aI-1
aI-1
aI0
aI0
aI1
aI0
aI0
aI0
aI-1
aI-1
aI-1
aI-1
aI1
aI1
aI-1
aI-1
aI-1
aI-1
aI-1
aI-1
aI-1
aI-1
aI-1
aI-10
aI-7
aI-8
aI-9
aI-10
aI-10
aI-9
aI-9
aI-9
aI-7
aI-9
aI-6
aI-6
aI-6
aI-6
aI-4
aI-1
aI1
aI0
aI-1
aI0
aI1
aI0
aI0
aI0
aI0
aI0
aI1
aI1
aI1
aI-1
aI0
aI-1
aI-4
aI1
aI0
aI0
aI0
aI0
aI-1
aI0
aI-1
aI-1
aI0
aI0
aI1
aI0
aI0
aI0
aI-1
aI-1
aI-1
aI-1
aI0
aI0
aI-1
aI-1
aI-1
aI-1
aI-1
aI-1
aI-1
aI-1
aI-1
aI-8
aI-7
aI-6
aI-10
aI-8
aI-12
aI-10
aI-8
aI-8
aI-5
aI-8
aI-6
aI-6
aI-6
aI-6
aI-6
aI-1
aI0
aI0
aI-1
aI1
aI1
aI0
aI0
aI0
aI1
aI4
aI0
aI2
aI3
aI3
aI0
aI2
aI-2
aI1
aI1
aI0
aI0
aI-1
aI-1
aI0
aI-1
aI-1
aI0
aI0
aI1
aI0
aI0
aI0
aI-1
aI-1
aI0
aI0
aI0
aI0
aI-1
aI-1
aI-1
aI-1
aI-1
aI-1
aI-1
aI-1
aI-1
aI-7
aI-7
aI-7
aI-11
aI-9
aI-12
aI-10
aI-8
aI-9
aI-4
aI-8
aI-7
aI-6
aI-6
aI-6
aI-6
aI-1
aI-1
aI0
aI0
aI1
aI0
aI0
aI1
aI1
aI4
aI1
aI4
aI4
aI2
aI-4
aI-1
aI-2
aI-1
aI1
aI0
aI1
aI0
aI0
aI1
aI0
aI-1
aI-1
aI0
aI0
aI1
aI0
aI0
aI0
aI-1
aI-1
aI0
aI0
aI0
aI0
aI-1
aI-1
aI-1
aI-1
aI-1
aI-1
aI-1
aI-1
aI-1
aI-8
aI-8
aI-7
aI-8
aI-9
aI-10
aI-7
aI-8
aI-5
aI-8
aI-5
aI-5
aI-4
aI-4
aI-5
aI-4
aI0
aI-1
aI1
aI-1
aI-1
aI1
aI3
aI2
aI2
aI2
aI6
aI1
aI-1
aI0
aI3
aI2
aI-2
aI-2
aI0
aI0
aI-1
aI0
aI-1
aI0
aI2
aI-1
aI-1
aI0
aI0
aI0
aI0
aI0
aI0
aI0
aI0
aI0
aI0
aI0
aI0
aI-1
aI0
aI-1
aI-1
aI-1
aI-1
aI-1
aI-1
aI-1
aI-7
aI-7
aI-6
aI-8
aI-8
aI-7
aI-5
aI-5
aI-4
aI-3
aI-5
aI-5
aI-5
aI-2
aI-2
aI-1
aI3
aI3
aI3
aI0
aI1
aI2
aI4
aI6
aI3
aI6
aI8
aI6
aI1
aI2
aI-2
aI0
aI0
aI-1
aI0
aI-1
aI-1
aI-1
aI-1
aI1
aI0
aI-1
aI-1
aI0
aI0
aI0
aI0
aI0
aI0
aI0
aI0
aI0
aI0
aI0
aI0
aI-1
aI0
aI-1
aI-1
aI-1
aI-1
aI-1
aI-1
aI-1
aI-6
aI-7
aI-6
aI-8
aI-7
aI-6
aI-6
aI-5
aI-4
aI-4
aI-5
aI-5
aI-4
aI-2
aI-3
aI-1
aI0
aI0
aI1
aI-1
aI2
aI2
aI-1
aI4
aI5
aI6
aI5
aI1
aI2
aI2
aI-6
aI-3
aI-2
aI0
aI0
aI-1
aI-1
aI-1
aI-1
aI1
aI0
aI-1
aI-1
aI0
aI0
aI0
aI0
aI0
aI0
aI0
aI0
aI1
aI0
aI0
aI0
aI0
aI0
aI0
aI0
aI0
aI0
aI0
aI-1
aI-1
aI-5
aI-5
aI-4
aI-6
aI-6
aI-5
aI-5
aI-4
aI-3
aI-3
aI-4
aI-3
aI-3
aI-4
aI0
aI-2
aI-1
aI2
aI-1
aI-3
aI-2
aI0
aI-1
aI0
aI-2
aI2
aI3
aI-4
aI-2
aI-3
aI-6
aI-4
aI-4
aI1
aI0
aI-1
aI-1
aI-1
aI0
aI1
aI0
aI0
aI0
aI0
aI0
aI1
aI1
aI0
aI0
aI0
aI0
aI1
aI0
aI0
aI0
aI0
aI0
aI0
aI0
aI0
aI0
aI0
aI1
aI0
aI-2
aI-4
aI-4
aI-6
aI-6
aI-5
aI-4
aI-3
aI-2
aI-1
aI-3
aI-2
aI-3
aI-3
aI-4
aI-3
aI-1
aI-1
aI-3
aI-5
aI-2
aI-1
aI-2
aI0
aI-1
aI4
aI4
aI-2
aI-4
aI-3
aI-9
aI-4
aI-4
aI0
aI0
aI-1
aI-1
aI-1
aI0
aI1
aI0
aI0
aI0
aI0
aI0
aI1
aI1
aI0
aI0
aI-1
aI-1
aI0
aI0
aI0
aI0
aI0
aI0
aI0
aI0
aI-1
aI-1
aI-1
aI-1
aI-1
aI-1
aI-4
aI-4
aI-7
aI-8
aI-4
aI-4
aI-4
aI-4
aI-4
aI-4
aI-2
aI-3
aI-1
aI-1
aI-3
aI2
aI-2
aI-2
aI-3
aI0
aI3
aI3
aI2
aI2
aI1
aI2
aI1
aI1
aI0
aI-2
aI-1
aI0
aI1
aI0
aI-1
aI-1
aI-1
aI0
aI1
aI0
aI0
aI0
aI0
aI0
aI1
aI1
aI0
aI0
aI-1
aI-1
aI0
aI0
aI0
aI0
aI0
aI0
aI0
aI0
aI-1
aI-1
aI-1
aI-1
aI0
aI-2
aI-3
aI-3
aI-7
aI-7
aI-4
aI-5
aI-4
aI-4
aI-4
aI-5
aI-2
aI-3
aI-2
aI-2
aI-4
aI-1
aI-3
aI-3
aI-3
aI-2
aI3
aI3
aI5
aI3
aI4
aI4
aI0
aI0
aI0
aI-4
aI-2
aI-2
aI-1
aI0
aI-1
aI-1
aI-1
aI0
aI1
aI0
aI0
aI0
aI0
aI0
aI1
aI1
aI0
aI0
aI-1
aI-1
aI0
aI0
aI0
aI0
aI0
aI0
aI-1
aI-1
aI-1
aI-1
aI-1
aI-1
aI-1
aI-2
aI-4
aI-4
aI-8
aI-8
aI-5
aI-5
aI-6
aI-5
aI-6
aI-7
aI-2
aI-3
aI-3
aI-4
aI-1
aI-1
aI0
aI-1
aI-4
aI-2
aI1
aI0
aI2
aI3
aI4
aI1
aI0
aI0
aI-1
aI-4
aI-2
aI-3
aI-3
aI0
aI-1
aI-1
aI-1
aI-1
aI1
aI0
aI0
aI0
aI0
aI0
aI1
aI1
aI0
aI0
aI-1
aI-1
aI0
aI0
aI0
aI0
aI0
aI0
aI-1
aI-1
aI-1
aI-1
aI-1
aI-1
aI-1
aI-5
aI-5
aI-5
aI-8
aI-8
aI-5
aI-5
aI-6
aI-6
aI-7
aI-7
aI-2
aI-3
aI-4
aI-4
aI-1
aI2
aI0
aI-1
aI-4
aI-2
aI1
aI0
aI2
aI2
aI3
aI1
aI0
aI0
aI-2
aI-4
aI-3
aI-4
aI-2
aI0
aI-1
aI-1
aI-1
aI-1
aI1
aI0
aI0
aI0
aI0
aI0
aI1
aI1
aI0
aI0
asbag0
(g8
g2
Ntp32
Rp33
(dp34
g12
I50
sg13
I4096
sg14
(lp35
I0
aI0
aI0
aI0
aI0
aI0
aI1
aI1
aI1
aI1
aI0
aI0
aI0
aI0
aI0
aI5
aI4
aI5
aI5
aI-1
aI6
aI9
aI11
aI9
aI15
aI11
aI8
aI8
aI-6
aI0
aI5
aI8
aI-1
aI-4
aI-11
aI-11
aI-16
aI-16
aI-9
aI-11
aI8
aI8
aI6
aI8
aI12
aI13
aI8
aI8
aI8
aI-3
aI1
aI1
aI1
aI1
aI4
aI6
aI4
aI4
aI2
aI2
aI-3
aI3
aI5
aI5
aI0
aI0
aI0
aI0
aI0
aI0
aI1
aI1
aI1
aI1
aI0
aI0
aI0
aI0
aI0
aI6
aI6
aI5
aI5
aI-1
aI6
aI10
aI11
aI10
aI11
aI13
aI8
aI8
aI-9
aI0
aI5
aI15
aI-1
aI-4
aI-11
aI-10
aI-14
aI-16
aI-7
aI-9
aI11
aI9
aI6
aI8
aI12
aI13
aI8
aI9
aI-5
aI-3
aI2
aI1
aI1
aI1
aI4
aI6
aI4
aI4
aI2
aI2
aI-3
aI3
aI5
aI5
aI0
aI0
aI0
aI0
aI0
aI0
aI1
aI1
aI1
aI1
aI0
aI0
aI0
aI0
aI0
aI9
aI3
aI4
aI4
aI-2
aI0
aI6
aI8
aI13
aI11
aI12
aI6
aI4
aI-6
aI5
aI5
aI5
aI-3
aI1
aI-9
aI-9
aI-8
aI-6
aI-1
aI-3
aI-4
aI-4
aI13
aI12
aI11
aI11
aI7
aI9
aI2
aI1
aI-3
aI1
aI3
aI4
aI5
aI7
aI7
aI5
aI5
aI3
aI-3
aI3
aI4
aI4
aI0
aI0
aI0
aI0
aI0
aI0
aI1
aI1
aI1
aI1
aI0
aI0
aI0
aI0
aI0
aI10
aI5
aI5
aI3
aI9
aI1
aI6
aI9
aI8
aI6
aI9
aI0
aI-1
aI-2
aI5
aI0
aI-4
aI-1
aI1
aI-6
aI-4
aI-7
aI-7
aI1
aI-3
aI-2
aI-3
aI14
aI15
aI13
aI11
aI6
aI10
aI1
aI1
aI-3
aI-3
aI6
aI6
aI5
aI7
aI7
aI5
aI5
aI5
aI-3
aI5
aI4
aI4
aI0
aI0
aI0
aI0
aI0
aI0
aI1
aI1
aI1
aI1
aI0
aI0
aI0
aI0
aI0
aI9
aI7
aI5
aI8
aI4
aI-5
aI8
aI9
aI15
aI5
aI1
aI-1
aI-9
aI-8
aI-7
aI-6
aI-7
aI-3
aI-10
aI-9
aI-8
aI-10
aI-8
aI1
aI2
aI1
aI5
aI-7
aI-1
aI-3
aI-5
aI-4
aI1
aI1
aI3
aI5
aI2
aI5
aI5
aI7
aI7
aI7
aI7
aI7
aI7
aI1
aI7
aI7
aI5
aI0
aI0
aI0
aI0
aI0
aI0
aI1
aI1
aI1
aI1
aI0
aI0
aI0
aI0
aI0
aI1
aI4
aI1
aI13
aI0
aI0
aI13
aI14
aI10
aI7
aI8
aI-6
aI-12
aI-7
aI-7
aI-8
aI2
aI-3
aI-11
aI-11
aI-10
aI-9
aI-11
aI-2
aI4
aI7
aI8
aI-2
aI0
aI-2
aI4
aI-11
aI-2
aI1
aI1
aI3
aI6
aI1
aI5
aI7
aI7
aI7
aI7
aI7
aI5
aI-1
aI3
aI3
aI3
aI0
aI0
aI0
aI0
aI0
aI0
aI1
aI1
aI1
aI1
aI0
aI0
aI0
aI0
aI0
aI2
aI-9
aI-8
aI-11
aI-4
aI4
aI4
aI6
aI0
aI3
aI-2
aI-4
aI-4
aI-8
aI-9
aI-3
aI2
aI-15
aI-18
aI-19
aI-14
aI-11
aI-12
aI2
aI-1
aI-5
aI3
aI2
aI4
aI1
aI-7
aI-2
aI-3
aI-1
aI2
aI2
aI2
aI2
aI-2
aI3
aI5
aI3
aI3
aI1
aI3
aI-4
aI2
aI2
aI2
aI0
aI0
aI0
aI0
aI0
aI0
aI1
aI1
aI1
aI1
aI0
aI0
aI0
aI0
aI0
aI4
aI-4
aI-5
aI-8
aI-4
aI4
aI6
aI4
aI0
aI0
aI-2
aI-4
aI-2
aI-9
aI-9
aI-4
aI1
aI-10
aI-19
aI-19
aI-14
aI-13
aI-14
aI2
aI2
aI-3
aI-2
aI-2
aI0
aI-6
aI-4
aI-9
aI-7
aI7
aI2
aI2
aI2
aI2
aI2
aI-1
aI2
aI4
aI3
aI2
aI3
aI-4
aI2
aI2
aI2
aI0
aI0
aI0
aI0
aI0
aI0
aI1
aI1
aI0
aI1
aI0
aI0
aI0
aI0
aI0
aI7
aI-1
aI2
aI-2
aI4
aI7
aI4
aI7
aI-4
aI-3
aI-5
aI-4
aI-2
aI-18
aI-6
aI2
aI-7
aI-4
aI-4
aI-16
aI-12
aI-12
aI-14
aI-8
aI-4
aI-5
aI-3
aI-9
aI2
aI4
aI-21
aI-8
aI9
aI-3
aI1
aI0
aI-1
aI-2
aI0
aI-3
aI-1
aI2
aI4
aI2
aI3
aI-4
aI2
aI1
aI1
aI0
aI0
aI0
aI0
aI0
aI0
aI1
aI1
aI0
aI1
aI0
aI0
aI0
aI0
aI0
aI8
aI10
aI10
aI-3
aI13
aI14
aI8
aI17
aI11
aI-2
aI-5
aI2
aI2
aI4
aI2
aI-1
aI-8
aI-2
aI-7
aI-13
aI-9
aI-4
aI-7
aI-3
aI-9
aI-4
aI-1
aI-5
aI11
aI-7
aI15
aI-3
aI-1
aI-2
aI-3
aI-2
aI0
aI-1
aI0
aI0
aI-6
aI2
aI2
aI2
aI2
aI-2
aI-2
aI1
aI1
aI0
aI0
aI0
aI0
aI0
aI0
aI1
aI1
aI1
aI1
aI0
aI0
aI0
aI0
aI0
aI7
aI1
aI-1
aI-1
aI10
aI4
aI3
aI0
aI-1
aI-6
aI-8
aI-7
aI-16
aI-11
aI-11
aI-3
aI-3
aI-7
aI-2
aI-11
aI-11
aI-16
aI-19
aI-22
aI-15
aI-7
aI-2
aI2
aI-7
aI-2
aI-2
aI7
aI9
aI2
aI-2
aI0
aI0
aI-2
aI0
aI0
aI-1
aI2
aI2
aI2
aI2
aI-3
aI-3
aI1
aI1
aI0
aI0
aI0
aI0
aI0
aI0
aI1
aI1
aI0
aI1
aI0
aI0
aI0
aI0
aI0
aI-2
aI2
aI2
aI4
aI1
aI5
aI15
aI8
aI5
aI8
aI5
aI-2
aI4
aI8
aI6
aI8
aI0
aI-2
aI-1
aI5
aI2
aI4
aI4
aI4
aI0
aI-1
aI8
aI3
aI1
aI4
aI1
aI-3
aI-2
aI0
aI-2
aI-2
aI-1
aI-1
aI0
aI0
aI-3
aI-2
aI2
aI2
aI2
aI-4
aI-2
aI1
aI1
aI0
aI0
aI0
aI0
aI0
aI0
aI1
aI1
aI0
aI1
aI0
aI0
aI0
aI0
aI0
aI-2
aI10
aI1
aI7
aI8
aI4
aI10
aI6
aI2
aI-5
aI-7
aI-4
aI-4
aI-8
aI-9
aI-13
aI-15
aI-12
aI-6
aI-8
aI-15
aI-14
aI-10
aI-10
aI-8
aI0
aI0
aI-7
aI-6
aI7
aI-4
aI-5
aI6
aI2
aI-2
aI-2
aI-3
aI-1
aI0
aI1
aI-1
aI-2
aI-1
aI2
aI2
aI-4
aI-2
aI1
aI1
aI0
aI0
aI0
aI0
aI0
aI0
aI1
aI1
aI0
aI1
aI0
aI0
aI0
aI0
aI0
aI-6
aI-1
aI-5
aI5
aI11
aI12
aI10
aI10
aI12
aI8
aI7
aI8
aI6
aI2
aI3
aI5
aI3
aI-1
aI4
aI0
aI2
aI0
aI1
aI2
aI-2
aI0
aI4
aI3
aI2
aI6
aI-3
aI-1
aI2
aI-1
aI1
aI-1
aI-2
aI-2
aI-4
aI-2
aI1
aI-2
aI-1
aI3
aI2
aI-4
aI-2
aI1
aI1
aI0
aI0
aI0
aI0
aI0
aI0
aI1
aI1
aI0
aI1
aI0
aI0
aI0
aI0
aI0
aI-6
aI5
aI4
aI12
aI8
aI1
aI10
aI7
aI2
aI6
aI3
aI5
aI3
aI-3
aI0
aI0
aI-6
aI-9
aI-6
aI-5
aI-5
aI-10
aI-4
aI-5
aI-6
aI-10
aI-5
aI5
aI1
aI-5
aI5
aI-3
aI1
aI1
aI0
aI-1
aI-1
aI0
aI-2
aI-4
aI0
aI-2
aI-1
aI3
aI2
aI-4
aI-2
aI-3
aI-3
aI-2
aI-2
aI0
aI0
aI-2
aI-2
aI-1
aI1
aI0
aI-1
aI-2
aI-2
aI0
aI0
aI-2
aI-10
aI-1
aI-12
aI-1
aI1
aI7
aI4
aI4
aI-1
aI4
aI3
aI-1
aI2
aI1
aI-3
aI-5
aI-1
aI-4
aI-2
aI-11
aI-10
aI-13
aI-15
aI-7
aI-8
aI-7
aI-4
aI-9
aI1
aI-6
aI-10
aI2
aI-5
aI0
aI0
aI1
aI1
aI1
aI1
aI3
aI-3
aI-4
aI-3
aI1
aI0
aI-4
aI-3
aI-6
aI-6
aI-1
aI-1
aI-1
aI-1
aI-1
aI-1
aI-1
aI-1
aI-2
aI-1
aI-2
aI-1
aI-1
aI0
aI-1
aI-15
aI1
aI-7
aI-6
aI2
aI1
aI2
aI1
aI3
aI7
aI3
aI1
aI3
aI0
aI0
aI-3
aI0
aI1
aI-7
aI-3
aI-5
aI-6
aI-5
aI-11
aI-5
aI0
aI-1
aI2
aI3
aI2
aI3
aI6
aI3
aI1
aI1
aI1
aI1
aI-1
aI-1
aI3
aI-6
aI-4
aI-1
aI-9
aI-7
aI-1
aI-1
aI-3
aI-2
aI-1
aI-1
aI-1
aI-1
aI-1
aI-1
aI-1
aI-1
aI-1
aI-1
aI-1
aI-1
aI-2
aI-2
aI-1
aI-3
aI2
aI-1
aI-5
aI7
aI3
aI3
aI1
aI4
aI2
aI1
aI2
aI2
aI1
aI3
aI2
aI0
aI1
aI-5
aI-6
aI-5
aI-9
aI-9
aI-12
aI-12
aI-7
aI-7
aI0
aI0
aI-1
aI-1
aI2
aI2
aI-6
aI-6
aI-2
aI-5
aI-5
aI-6
aI0
aI-4
aI-2
aI-3
aI-8
aI-8
aI-1
aI-1
aI0
aI0
aI-1
aI-1
aI-1
aI-1
aI-1
aI-1
aI-1
aI-1
aI-2
aI-2
aI-2
aI-1
aI-1
aI-1
aI-1
aI-1
aI2
aI-5
aI-4
aI3
aI4
aI9
aI9
aI4
aI-3
aI2
aI4
aI2
aI2
aI-2
aI4
aI0
aI-2
aI-2
aI-2
aI-4
aI-9
aI-9
aI-11
aI-16
aI-8
aI-7
aI-5
aI-6
aI-4
aI-1
aI2
aI3
aI-5
aI-4
aI-5
aI-4
aI-4
aI-4
aI0
aI-3
aI-2
aI-2
aI-8
aI-8
aI-1
aI-1
aI0
aI0
aI-1
aI-1
aI-1
aI-1
aI-1
aI-1
aI-1
aI-1
aI-1
aI-2
aI-2
aI-1
aI-1
aI-2
aI-1
aI4
aI3
aI-5
aI-4
aI3
aI4
aI4
aI2
aI4
aI2
aI3
aI2
aI2
aI-1
aI2
aI4
aI2
aI-3
aI-3
aI-7
aI-4
aI-16
aI-13
aI-15
aI-15
aI-15
aI-5
aI-3
aI-1
aI-8
aI-7
aI-6
aI0
aI-21
aI-3
aI-6
aI-5
aI-2
aI-3
aI-4
aI-3
aI-2
aI-2
aI-8
aI-8
aI-1
aI-1
aI-2
aI-2
aI-1
aI-1
aI-1
aI-1
aI-1
aI-1
aI-1
aI-1
aI-1
aI-2
aI-1
aI-1
aI-2
aI-2
aI-1
aI-1
aI3
aI-1
aI0
aI4
aI4
aI5
aI1
aI3
aI2
aI2
aI4
aI3
aI2
aI3
aI6
aI4
aI-10
aI-3
aI-1
aI-1
aI-5
aI-11
aI-15
aI-13
aI-21
aI-6
aI-12
aI-1
aI-9
aI-1
aI-2
aI-4
aI-23
aI-6
aI-3
aI-3
aI0
aI-4
aI-2
aI-4
aI-2
aI-2
aI-7
aI-5
aI-6
aI-6
aI-2
aI-2
aI-1
aI-1
aI-1
aI-1
aI-1
aI-1
aI-1
aI-1
aI-2
aI-2
aI-1
aI-2
aI-1
aI-1
aI-2
aI4
aI3
aI-1
aI-4
aI4
aI3
aI5
aI1
aI3
aI0
aI2
aI2
aI4
aI4
aI0
aI-3
aI2
aI-16
aI-16
aI-20
aI-20
aI-22
aI-21
aI-32
aI-27
aI-15
aI-16
aI-18
aI-11
aI-10
aI-1
aI-11
aI-15
aI-33
aI-2
aI1
aI-6
aI-6
aI-2
aI1
aI-4
aI-2
aI-2
aI-7
aI-7
aI-4
aI-4
aI-2
aI-2
aI-1
aI-1
aI-1
aI-1
aI-1
aI-1
aI-1
aI-1
aI-1
aI-1
aI-1
aI-2
aI-1
aI-1
aI-2
aI5
aI2
aI-6
aI0
aI5
aI8
aI5
aI1
aI5
aI-1
aI-4
aI5
aI5
aI5
aI5
aI-1
aI3
aI-2
aI2
aI-5
aI1
aI-6
aI-10
aI-13
aI-6
aI-6
aI-16
aI10
aI1
aI6
aI4
aI-6
aI-2
aI-24
aI-4
aI-4
aI-5
aI-5
aI-2
aI-4
aI-10
aI-7
aI-7
aI-6
aI-6
aI-5
aI-5
aI-7
aI-7
aI-1
aI-1
aI-1
aI-1
aI-1
aI-1
aI-1
aI-1
aI-2
aI-2
aI-1
aI-2
aI-2
aI-2
aI-1
aI15
aI2
aI-2
aI1
aI1
aI10
aI2
aI1
aI6
aI-1
aI3
aI4
aI6
aI6
aI4
aI7
aI0
aI-1
aI0
aI-2
aI-7
aI-8
aI-6
aI-4
aI-16
aI-2
aI-3
aI7
aI1
aI-11
aI0
aI-2
aI-5
aI-19
aI-5
aI-8
aI-1
aI-4
aI-12
aI-3
aI-4
aI-7
aI-7
aI-6
aI-5
aI-6
aI-5
aI-6
aI-6
aI-1
aI-1
aI-1
aI-1
aI-1
aI-1
aI-1
aI-1
aI-1
aI-1
aI-1
aI-1
aI-1
aI-1
aI-1
aI19
aI5
aI-1
aI7
aI12
aI13
aI8
aI5
aI5
aI2
aI1
aI2
aI4
aI7
aI4
aI3
aI-1
aI-3
aI-5
aI-9
aI-11
aI-11
aI-6
aI-3
aI1
aI-4
aI5
aI4
aI1
aI-1
aI4
aI2
aI3
aI-19
aI-7
aI-2
aI-7
aI-2
aI-7
aI-6
aI-6
aI-5
aI-5
aI-6
aI-5
aI-6
aI-6
aI-7
aI-8
aI-1
aI-1
aI-1
aI-1
aI-1
aI-1
aI-1
aI-1
aI-1
aI-1
aI-1
aI-1
aI-1
aI-1
aI-1
aI11
aI6
aI0
aI2
aI13
aI14
aI7
aI5
aI5
aI1
aI1
aI6
aI9
aI6
aI3
aI5
aI4
aI-1
aI-2
aI-8
aI-6
aI3
aI-5
aI-7
aI-5
aI-1
aI-7
aI-2
aI4
aI7
aI8
aI-3
aI1
aI-20
aI-3
aI-3
aI0
aI-2
aI-2
aI-1
aI-5
aI-5
aI-5
aI-4
aI-5
aI-7
aI-7
aI-8
aI-8
aI-1
aI-1
aI-1
aI-1
aI-1
aI-1
aI-1
aI-1
aI-1
aI-1
aI-1
aI-1
aI-1
aI-1
aI-1
aI6
aI6
aI4
aI5
aI11
aI12
aI9
aI9
aI9
aI4
aI7
aI1
aI4
aI6
aI6
aI2
aI0
aI5
aI2
aI0
aI4
aI5
aI-3
aI-9
aI-12
aI-15
aI-15
aI-6
aI-7
aI5
aI0
aI-9
aI-7
aI-15
aI-3
aI-1
aI-1
aI-1
aI-1
aI-1
aI0
aI0
aI0
aI-3
aI-7
aI-5
aI-4
aI-2
aI-2
aI-1
aI-1
aI1
aI-1
aI-1
aI-1
aI-1
aI-1
aI-1
aI-1
aI-1
aI-1
aI-1
aI-1
aI-1
aI1
aI11
aI4
aI-1
aI11
aI12
aI11
aI7
aI4
aI2
aI12
aI3
aI2
aI2
aI3
aI4
aI4
aI0
aI2
aI-7
aI5
aI-9
aI1
aI-4
aI0
aI-14
aI0
aI-10
aI3
aI-8
aI6
aI-3
aI-5
aI-18
aI-3
aI-3
aI-2
aI0
aI0
aI0
aI0
aI0
aI0
aI-4
aI-3
aI-7
aI-6
aI-2
aI-2
aI-1
aI-1
aI1
aI-1
aI-1
aI-1
aI-1
aI-1
aI-1
aI-1
aI-1
aI-1
aI-1
aI-1
aI-1
aI10
aI3
aI-1
aI-2
aI7
aI12
aI11
aI2
aI4
aI5
aI13
aI7
aI8
aI5
aI3
aI2
aI2
aI0
aI2
aI3
aI7
aI1
aI2
aI4
aI3
aI2
aI2
aI4
aI-1
aI-4
aI7
aI-5
aI7
aI-16
aI-3
aI-3
aI-3
aI-3
aI0
aI0
aI0
aI0
aI0
aI-4
aI-5
aI-2
aI-1
aI-2
aI-2
aI-1
aI-1
aI1
aI-1
aI-1
aI-1
aI-1
aI-1
aI-1
aI-1
aI-1
aI-1
aI-1
aI-1
aI-1
aI10
aI3
aI-1
aI0
aI8
aI11
aI8
aI2
aI4
aI-1
aI6
aI8
aI7
aI5
aI3
aI1
aI-9
aI-5
aI6
aI3
aI2
aI0
aI0
aI1
aI1
aI4
aI4
aI6
aI5
aI4
aI8
aI3
aI4
aI-4
aI-3
aI-3
aI-3
aI-3
aI0
aI2
aI-1
aI0
aI0
aI-4
aI-7
aI-2
aI-1
aI-2
aI-2
aI-1
aI-1
aI1
aI-1
aI-1
aI-1
aI-1
aI-1
aI-1
aI-1
aI-1
aI-1
aI-1
aI-1
aI-1
aI8
aI2
aI-2
aI-4
aI4
aI6
aI3
aI1
aI4
aI7
aI3
aI7
aI6
aI2
aI2
aI1
aI2
aI0
aI0
aI2
aI1
aI1
aI1
aI1
aI0
aI2
aI2
aI4
aI3
aI2
aI6
aI6
aI6
aI-1
aI-3
aI-3
aI-3
aI-3
aI-1
aI1
aI-1
aI-2
aI-3
aI-8
aI-8
aI-2
aI-1
aI-2
aI-2
aI3
aI3
aI5
aI-2
aI-2
aI-2
aI1
aI-2
aI-2
aI-2
aI-2
aI-2
aI-3
aI-1
aI-1
aI-8
aI1
aI-2
aI-5
aI4
aI5
aI5
aI2
aI7
aI6
aI-1
aI6
aI6
aI8
aI-1
aI-2
aI1
aI0
aI0
aI0
aI2
aI0
aI0
aI0
aI1
aI2
aI2
aI3
aI2
aI1
aI1
aI2
aI3
aI11
aI-2
aI0
aI-2
aI-2
aI-1
aI0
aI0
aI0
aI-3
aI-8
aI-8
aI-2
aI-1
aI-5
aI-5
aI-1
aI1
aI4
aI2
aI3
aI3
aI2
aI-2
aI0
aI1
aI0
aI-1
aI-1
aI0
aI0
aI-3
aI3
aI9
aI-11
aI1
aI11
aI11
aI7
aI5
aI7
aI2
aI1
aI2
aI6
aI7
aI5
aI2
aI0
aI-3
aI1
aI1
aI0
aI0
aI0
aI0
aI1
aI1
aI3
aI2
aI1
aI-1
aI0
aI0
aI1
aI-2
aI-3
aI-1
aI8
aI8
aI7
aI2
aI-1
aI-1
aI-1
aI-1
aI-1
aI-7
aI-3
aI-5
aI-1
aI-1
aI4
aI2
aI3
aI3
aI0
aI-2
aI0
aI1
aI0
aI-1
aI0
aI0
aI0
aI0
aI2
aI2
aI-4
aI-1
aI3
aI-3
aI1
aI1
aI2
aI0
aI2
aI6
aI-5
aI-4
aI-3
aI-7
aI0
aI-2
aI0
aI1
aI0
aI0
aI0
aI0
aI1
aI1
aI3
aI2
aI1
aI1
aI-5
aI0
aI5
aI-1
aI0
aI-1
aI3
aI8
aI3
aI3
aI-1
aI-1
aI-1
aI1
aI1
aI-4
aI-1
aI-1
aI-1
aI-1
aI2
aI2
aI-1
aI-1
aI-3
aI-3
aI-3
aI-2
aI0
aI-1
aI1
aI-1
aI-1
aI1
aI-1
aI-3
aI0
aI-6
aI5
aI-1
aI3
aI-1
aI3
aI-2
aI-8
aI-10
aI-4
aI-4
aI-1
aI4
aI4
aI0
aI-3
aI0
aI0
aI0
aI0
aI0
aI1
aI1
aI3
aI2
aI1
aI1
aI0
aI0
aI6
aI-1
aI-1
aI0
aI0
aI8
aI3
aI3
aI-1
aI-1
aI-1
aI1
aI1
aI-4
aI-1
aI-1
aI-4
aI-4
aI-1
aI-1
aI-1
aI-1
aI-3
aI-3
aI-3
aI-3
aI0
aI-1
aI-1
aI-1
aI-1
aI2
aI0
aI2
aI-1
aI-5
aI1
aI-1
aI1
aI-1
aI0
aI-7
aI-8
aI-7
aI-9
aI-10
aI-12
aI-12
aI2
aI2
aI1
aI-2
aI-1
aI-2
aI-5
aI0
aI1
aI1
aI3
aI3
aI2
aI2
aI-6
aI-2
aI-1
aI-1
aI-1
aI-1
aI-1
aI4
aI-1
aI3
aI-1
aI-1
aI-1
aI1
aI1
aI-4
aI-1
aI-1
aI1
aI1
aI2
aI2
aI2
aI2
aI-3
aI-1
aI-3
aI-3
aI2
aI1
aI1
aI1
aI1
aI-7
aI2
aI2
aI1
aI1
aI6
aI4
aI-7
aI-3
aI-11
aI-11
aI-6
aI-20
aI-17
aI-1
aI3
aI-3
aI0
aI-4
aI2
aI0
aI-2
aI0
aI0
aI0
aI1
aI1
aI4
aI3
aI2
aI4
aI0
aI0
aI7
aI8
aI-1
aI-1
aI-1
aI-1
aI-1
aI4
aI-1
aI-1
aI-1
aI1
aI1
aI-4
aI-1
aI-1
aI1
aI1
aI2
aI2
aI2
aI2
aI-3
aI-2
aI-3
aI-3
aI2
aI2
aI1
aI0
aI0
aI-9
aI-1
aI-2
aI1
aI4
aI6
aI1
aI-3
aI6
aI-1
aI-14
aI-2
aI-1
aI-1
aI-12
aI-6
aI-3
aI-3
aI-4
aI5
aI0
aI4
aI0
aI1
aI2
aI1
aI1
aI4
aI3
aI2
aI3
aI1
aI1
aI6
aI8
aI-1
aI-1
aI-1
aI-1
aI-1
aI3
aI0
aI-1
aI-1
aI1
aI1
aI-4
aI-1
aI-1
aI2
aI2
aI3
aI3
aI2
aI2
aI-4
aI-3
aI-1
aI1
aI-2
aI-1
aI-4
aI0
aI-3
aI-12
aI-6
aI-8
aI-4
aI0
aI-1
aI-2
aI-12
aI-11
aI0
aI-2
aI-5
aI-6
aI-18
aI-15
aI-5
aI2
aI0
aI2
aI0
aI-6
aI1
aI1
aI0
aI0
aI1
aI6
aI5
aI3
aI3
aI3
aI1
aI3
aI5
aI8
aI-1
aI-1
aI-1
aI-1
aI-1
aI3
aI0
aI0
aI-1
aI1
aI1
aI-1
aI-1
aI-1
aI2
aI2
aI3
aI3
aI2
aI2
aI-4
aI-3
aI-1
aI-1
aI-2
aI-2
aI-2
aI0
aI0
aI-4
aI-10
aI-10
aI5
aI-5
aI-3
aI-5
aI-13
aI-3
aI-9
aI3
aI-18
aI-4
aI-25
aI-15
aI-6
aI-4
aI-3
aI4
aI1
aI0
aI0
aI0
aI0
aI0
aI2
aI5
aI4
aI3
aI4
aI4
aI2
aI3
aI11
aI8
aI-1
aI-1
aI-1
aI-1
aI-1
aI3
aI0
aI0
aI-1
aI-1
aI1
aI-1
aI-1
aI-1
aI0
aI0
aI3
aI3
aI2
aI2
aI-4
aI-1
aI2
aI4
aI-2
aI4
aI4
aI0
aI0
aI-4
aI-9
aI-8
aI-4
aI-2
aI-9
aI-7
aI-15
aI-13
aI-18
aI-21
aI-13
aI-18
aI-15
aI-18
aI-7
aI-3
aI-3
aI7
aI2
aI-2
aI0
aI0
aI0
aI0
aI1
aI2
aI3
aI3
aI4
aI5
aI2
aI2
aI12
aI3
aI-1
aI-1
aI-1
aI3
aI3
aI-1
aI0
aI0
aI-1
aI-1
aI1
aI-1
aI-1
aI-1
aI0
aI0
aI3
aI3
aI2
aI-3
aI-1
aI0
aI2
aI5
aI2
aI0
aI0
aI0
aI0
aI-10
aI-10
aI-6
aI0
aI-4
aI-5
aI-6
aI-6
aI-9
aI-24
aI-22
aI-14
aI-18
aI-22
aI-18
aI-7
aI-7
aI-3
aI8
aI-2
aI-1
aI4
aI0
aI0
aI0
aI3
aI1
aI3
aI2
aI3
aI5
aI5
aI2
aI5
aI3
aI-1
aI-1
aI-1
aI3
aI3
aI-1
aI0
aI0
aI-1
aI1
aI1
aI-1
aI-1
aI-1
aI0
aI0
aI1
aI1
aI-1
aI2
aI-1
aI2
aI2
aI6
aI4
aI0
aI0
aI4
aI4
aI-11
aI-6
aI-5
aI2
aI-5
aI-11
aI-5
aI-1
aI-5
aI-12
aI-15
aI-12
aI-12
aI-26
aI-14
aI2
aI-6
aI-1
aI1
aI-12
aI1
aI4
aI0
aI0
aI3
aI3
aI1
aI3
aI2
aI7
aI4
aI1
aI3
aI10
aI3
aI-1
aI-1
aI-1
aI3
aI-1
aI-1
aI0
aI-1
aI-1
aI1
aI1
aI-4
aI-1
aI-1
aI0
aI0
aI1
aI0
aI2
aI2
aI1
aI3
aI4
aI4
aI0
aI2
aI4
aI4
aI0
aI2
aI-2
aI-3
aI-1
aI2
aI-7
aI0
aI-3
aI-11
aI-13
aI-10
aI-13
aI-14
aI-23
aI-14
aI0
aI-11
aI-2
aI1
aI0
aI3
aI1
aI0
aI0
aI0
aI1
aI1
aI3
aI2
aI3
aI2
aI1
aI3
aI2
aI-1
aI-1
aI-1
aI3
aI3
aI-1
aI0
aI-1
aI-1
aI-1
aI1
aI1
aI-4
aI-1
aI-1
aI0
aI0
aI1
aI0
aI2
aI3
aI1
aI1
aI2
aI5
aI0
aI0
aI4
aI0
aI4
aI1
aI-4
aI-4
aI2
aI0
aI-3
aI-2
aI-3
aI-1
aI-5
aI-10
aI-12
aI-12
aI-11
aI-9
aI-3
aI-19
aI2
aI1
aI-4
aI2
aI2
aI0
aI-5
aI0
aI1
aI1
aI3
aI2
aI3
aI4
aI-2
aI0
aI4
aI-1
aI-1
aI-1
aI3
aI3
aI-1
aI-1
aI-1
aI-1
aI-1
aI1
aI1
aI-4
aI-1
aI-1
aI0
aI0
aI1
aI0
aI2
aI1
aI1
aI1
aI1
aI0
aI0
aI4
aI2
aI0
aI4
aI7
aI-6
aI-6
aI0
aI0
aI-2
aI-1
aI-10
aI-4
aI-5
aI-5
aI-12
aI-12
aI-12
aI-8
aI-4
aI-7
aI0
aI-1
aI-3
aI-1
aI0
aI0
aI0
aI0
aI1
aI1
aI3
aI2
aI4
aI2
aI0
aI0
aI7
aI-1
aI-1
aI2
aI0
aI-1
aI-1
aI-1
aI-1
aI-1
aI-1
aI1
aI1
aI-4
aI-1
aI-1
aI0
aI0
aI3
aI0
aI2
aI1
aI1
aI1
aI1
aI5
aI4
aI4
aI0
aI0
aI4
aI4
aI-4
aI-3
aI-2
aI1
aI-3
aI-3
aI-1
aI-7
aI-6
aI-5
aI-14
aI-14
aI-13
aI-8
aI-4
aI-1
aI0
aI0
aI-2
aI-3
aI0
aI0
aI0
aI0
aI1
aI1
aI3
aI2
aI2
aI2
aI0
aI0
aI2
aI-1
aI0
aI-1
aI-1
aI-1
aI-1
aI-1
aI-1
aI-1
aI-1
aI1
aI1
aI-4
aI-1
aI-1
aI0
aI0
aI1
aI0
aI2
aI1
aI3
aI1
aI-1
aI5
aI0
aI0
aI4
aI4
aI0
aI8
aI2
aI2
aI6
aI2
aI2
aI-5
aI-8
aI-9
aI-6
aI-4
aI-15
aI-11
aI-12
aI-9
aI0
aI-11
aI0
aI0
aI0
aI0
aI0
aI0
aI0
aI0
aI1
aI1
aI2
aI2
aI3
aI4
aI1
aI-4
aI-6
aI2
aI2
aI-2
aI-2
aI-2
aI-2
aI2
aI-2
aI-1
aI-1
aI1
aI1
aI-5
aI-2
aI-2
aI2
aI2
aI3
aI0
aI2
aI0
aI3
aI2
aI0
aI1
aI0
aI1
aI1
aI3
aI1
aI13
aI2
aI4
aI3
aI6
aI6
aI3
aI5
aI2
aI-5
aI5
aI0
aI-4
aI-9
aI-4
aI-4
aI-2
aI0
aI1
aI1
aI1
aI-4
aI0
aI0
aI1
aI2
aI3
aI3
aI6
aI10
aI6
aI2
aI2
aI1
aI-1
aI1
aI-1
aI-1
aI-2
aI0
aI-2
aI2
aI-1
aI0
aI0
aI0
aI0
aI-3
aI-5
aI3
aI3
aI3
aI1
aI3
aI3
aI3
aI3
aI3
aI4
aI3
aI3
aI3
aI3
aI3
aI17
aI0
aI0
aI2
aI7
aI1
aI1
aI3
aI1
aI-7
aI0
aI0
aI-4
aI-3
aI0
aI1
aI0
aI0
aI-3
aI-3
aI0
aI-5
aI4
aI3
aI-3
aI6
aI6
aI4
aI11
aI11
aI10
aI4
aI-4
aI0
aI-2
aI-2
aI-2
aI0
aI-2
aI0
aI-2
aI0
aI0
aI0
aI0
aI0
aI0
aI0
aI0
aI3
aI3
aI3
aI1
aI3
aI3
aI3
aI3
aI3
aI1
aI3
aI3
aI3
aI3
aI3
aI17
aI0
aI1
aI1
aI7
aI4
aI2
aI-1
aI1
aI-5
aI0
aI0
aI-4
aI-1
aI0
aI1
aI0
aI0
aI5
aI-1
aI2
aI5
aI6
aI4
aI4
aI6
aI3
aI8
aI3
aI5
aI4
aI-6
aI0
aI0
aI0
aI-2
aI-2
aI0
aI-2
aI-2
aI-2
aI0
aI0
aI0
aI0
aI0
aI0
aI0
aI0
aI3
aI3
aI3
aI1
aI3
aI3
aI3
aI3
aI3
aI1
aI3
aI3
aI3
aI3
aI3
aI24
aI3
aI0
aI3
aI5
aI4
aI3
aI-1
aI1
aI1
aI0
aI-5
aI0
aI0
aI0
aI0
aI0
aI-5
aI0
aI3
aI4
aI0
aI-2
aI4
aI8
aI3
aI10
aI4
aI-8
aI10
aI-1
aI2
aI-1
aI-1
aI0
aI0
aI-2
aI-2
aI-2
aI-2
aI0
aI0
aI0
aI0
aI0
aI0
aI0
aI0
aI0
aI3
aI3
aI3
aI1
aI3
aI3
aI3
aI3
aI3
aI0
aI3
aI3
aI3
aI3
aI3
aI23
aI0
aI5
aI6
aI7
aI3
aI3
aI1
aI1
aI0
aI0
aI0
aI0
aI0
aI0
aI0
aI0
aI0
aI2
aI6
aI5
aI2
aI0
aI4
aI3
aI3
aI7
aI-4
aI2
aI0
aI5
aI2
aI-10
aI0
aI-2
aI0
aI-2
aI-2
aI0
aI-2
aI0
aI0
aI0
aI0
aI0
aI0
aI0
aI0
aI0
aI3
aI3
aI3
aI3
aI1
aI3
aI3
aI3
aI3
aI0
aI3
aI3
aI3
aI3
aI3
aI24
aI0
aI2
aI4
aI8
aI8
aI3
aI-4
aI3
aI2
aI1
aI0
aI0
aI0
aI0
aI0
aI0
aI0
aI2
aI5
aI1
aI1
aI0
aI5
aI2
aI6
aI3
aI4
aI-2
aI2
aI2
aI-3
aI5
aI2
aI-2
aI0
aI-2
aI-2
aI0
aI0
aI-2
aI0
aI0
aI0
aI0
aI0
aI0
aI0
aI0
aI3
aI3
aI3
aI3
aI1
aI3
aI3
aI3
aI3
aI0
aI3
aI3
aI3
aI3
aI3
aI23
aI2
aI2
aI7
aI4
aI10
aI-2
aI0
aI3
aI0
aI1
aI0
aI0
aI0
aI0
aI0
aI0
aI0
aI4
aI6
aI1
aI0
aI-4
aI6
aI-16
aI4
aI5
aI0
aI-14
aI3
aI9
aI-4
aI5
aI-11
aI0
aI-2
aI-2
aI0
aI0
aI0
aI-2
aI0
aI0
aI0
aI0
aI0
aI0
aI0
aI0
aI3
aI3
aI3
aI3
aI1
aI3
aI3
aI3
aI3
aI0
aI3
aI3
aI3
aI3
aI3
aI17
aI-7
aI3
aI-2
aI1
aI4
aI-1
aI-7
aI4
aI7
aI0
aI3
aI1
aI5
aI1
aI1
aI0
aI2
aI-3
aI-3
aI-7
aI1
aI1
aI9
aI2
aI-6
aI11
aI-7
aI2
aI9
aI-11
aI-7
aI-13
aI-14
aI0
aI-2
aI0
aI0
aI-2
aI-2
aI0
aI0
aI0
aI0
aI0
aI0
aI0
aI0
aI0
aI3
aI3
aI3
aI3
aI1
aI3
aI3
aI3
aI1
aI1
aI3
aI3
aI3
aI3
aI3
aI6
aI2
aI2
aI1
aI-6
aI-8
aI-4
aI-14
aI-5
aI-3
aI-13
aI-9
aI-17
aI-16
aI-9
aI-7
aI-7
aI-2
aI-7
aI-8
aI-3
aI-3
aI-2
aI6
aI3
aI-8
aI-7
aI-24
aI-17
aI-15
aI-14
aI-11
aI-18
aI-12
aI0
aI0
aI0
aI0
aI0
aI0
aI0
aI0
aI0
aI0
aI0
aI0
aI1
aI1
aI1
aI3
aI3
aI3
aI3
aI1
aI1
aI3
aI3
aI1
aI1
aI3
aI3
aI3
aI3
aI3
aI-4
aI6
aI6
aI-5
aI-12
aI-12
aI-5
aI-1
aI-11
aI-8
aI-15
aI-10
aI-13
aI-16
aI-6
aI-4
aI3
aI0
aI-9
aI-9
aI-2
aI-2
aI8
aI5
aI9
aI-4
aI-6
aI-16
aI-21
aI-14
aI-14
aI-3
aI-8
aI1
aI0
aI0
aI0
aI0
aI0
aI0
aI0
aI0
aI0
aI0
aI0
aI0
aI0
aI1
aI1
aI1
aI1
aI1
aI1
aI1
aI1
aI1
aI1
aI1
aI1
aI1
aI1
aI1
aI3
aI3
aI-9
aI-6
aI-4
aI-3
aI-6
aI1
aI10
aI10
aI-3
aI-8
aI0
aI8
aI2
aI-2
aI-3
aI2
aI8
aI0
aI-3
aI-1
aI7
aI12
aI13
aI8
aI8
aI-1
aI1
aI-8
aI1
aI4
aI-4
aI2
aI0
aI7
aI0
aI0
aI0
aI0
aI0
aI0
aI0
aI0
aI0
aI0
aI0
aI0
aI0
aI0
aI0
aI1
aI1
aI1
aI1
aI1
aI1
aI1
aI1
aI1
aI1
aI1
aI1
aI1
aI1
aI1
aI3
aI19
aI13
aI8
aI-5
aI-3
aI8
aI13
aI5
aI4
aI-2
aI6
aI4
aI0
aI3
aI8
aI6
aI7
aI12
aI0
aI6
aI11
aI11
aI10
aI14
aI3
aI1
aI3
aI6
aI5
aI8
aI4
aI3
aI3
aI0
aI0
aI0
aI0
aI0
aI0
aI0
aI0
aI0
aI0
aI0
aI0
aI0
aI0
aI0
aI1
aI1
aI1
aI1
aI1
aI1
aI1
aI1
aI1
aI1
aI1
aI1
aI3
aI3
aI3
aI14
aI8
aI6
aI4
aI13
aI13
aI19
aI12
aI12
aI9
aI7
aI10
aI10
aI-7
aI-3
aI5
aI0
aI14
aI1
aI7
aI-3
aI6
aI1
aI-2
aI1
aI16
aI14
aI6
aI5
aI-4
aI-6
aI3
aI0
aI-7
aI0
aI0
aI0
aI0
aI0
aI0
aI0
aI0
aI0
aI0
aI0
aI0
aI0
aI0
aI0
aI1
aI1
aI1
aI1
aI1
aI1
aI1
aI1
aI1
aI1
aI1
aI3
aI3
aI3
aI3
aI19
aI7
aI6
aI12
aI3
aI10
aI20
aI13
aI15
aI0
aI7
aI7
aI11
aI10
aI10
aI10
aI7
aI6
aI0
aI4
aI4
aI0
aI-4
aI-3
aI-3
aI14
aI14
aI4
aI5
aI-2
aI-11
aI-6
aI-11
aI8
aI0
aI0
aI0
aI0
aI0
aI0
aI0
aI0
aI0
aI0
aI0
aI0
aI0
aI0
aI0
aI1
aI1
aI1
aI1
aI3
aI3
aI3
aI3
aI1
aI1
aI3
aI3
aI3
aI3
aI3
aI12
aI9
aI11
aI18
aI9
aI13
aI23
aI27
aI13
aI0
aI12
aI0
aI-5
aI7
aI11
aI-4
aI15
aI-4
aI-7
aI-10
aI-8
aI-6
aI-6
aI3
aI5
aI0
aI5
aI0
aI2
aI-1
aI-1
aI-5
aI-2
aI5
aI0
aI1
aI0
aI0
aI0
aI0
aI0
aI0
aI0
aI0
aI0
aI0
aI0
aI0
aI0
aI1
aI1
aI1
aI1
aI3
aI3
aI3
aI3
aI1
aI1
aI3
aI3
aI3
aI3
aI3
aI13
aI8
aI11
aI18
aI7
aI13
aI14
aI25
aI20
aI7
aI17
aI-6
aI-5
aI11
aI11
aI-1
aI13
aI2
aI0
aI-4
aI-8
aI-6
aI-6
aI1
aI3
aI-3
aI3
aI0
aI2
aI2
aI-1
aI1
aI3
aI-3
aI0
aI0
aI0
aI0
aI0
aI0
aI0
aI0
aI0
aI0
aI0
aI0
aI0
aI0
aI0
asbag0
(g8
g2
Ntp36
Rp37
(dp38
g12
I50
sg13
I4096
sg14
(lp39
I0
aI0
aI0
aI0
aI0
aI0
aI1
aI1
aI1
aI1
aI0
aI0
aI0
aI0
aI0
aI8
aI3
aI4
aI9
aI14
aI3
aI-2
aI-7
aI-2
aI3
aI10
aI-3
aI-4
aI10
aI12
aI1
aI-1
aI7
aI3
aI7
aI12
aI9
aI7
aI-3
aI9
aI2
aI2
aI-2
aI5
aI6
aI-7
aI-2
aI5
aI18
aI8
aI3
aI3
aI3
aI3
aI-2
aI-9
aI7
aI7
aI4
aI4
aI3
aI-2
aI-9
aI-9
aI0
aI0
aI0
aI0
aI0
aI0
aI1
aI1
aI1
aI1
aI0
aI0
aI0
aI0
aI0
aI1
aI-9
aI4
aI9
aI15
aI3
aI1
aI-6
aI-5
aI10
aI2
aI-5
aI-2
aI12
aI10
aI3
aI-30
aI13
aI6
aI10
aI10
aI9
aI8
aI2
aI6
aI-11
aI-4
aI2
aI5
aI9
aI-7
aI-2
aI6
aI3
aI8
aI4
aI3
aI3
aI3
aI-2
aI-9
aI7
aI7
aI4
aI4
aI3
aI-2
aI-9
aI-9
aI0
aI0
aI0
aI0
aI0
aI0
aI1
aI1
aI1
aI1
aI0
aI0
aI0
aI0
aI0
aI6
aI-3
aI-2
aI-1
aI8
aI-10
aI-18
aI-8
aI-10
aI5
aI0
aI-11
aI-1
aI2
aI-12
aI-14
aI-21
aI16
aI2
aI20
aI16
aI-3
aI-6
aI-22
aI-6
aI-8
aI-8
aI0
aI3
aI11
aI-5
aI-9
aI6
aI-9
aI3
aI8
aI3
aI6
aI0
aI1
aI-6
aI-6
aI1
aI1
aI0
aI3
aI-2
aI-10
aI-10
aI0
aI0
aI0
aI0
aI0
aI0
aI1
aI1
aI1
aI1
aI0
aI0
aI0
aI0
aI0
aI-4
aI-3
aI0
aI3
aI-8
aI-8
aI-16
aI-12
aI-9
aI-7
aI7
aI-4
aI0
aI-13
aI-7
aI-15
aI-16
aI4
aI3
aI2
aI6
aI9
aI2
aI-16
aI-8
aI-12
aI-14
aI6
aI11
aI7
aI-4
aI1
aI4
aI-7
aI3
aI8
aI8
aI-7
aI-7
aI1
aI-6
aI-6
aI1
aI1
aI1
aI5
aI-7
aI-8
aI-8
aI0
aI0
aI0
aI0
aI0
aI0
aI1
aI1
aI1
aI1
aI0
aI0
aI0
aI0
aI0
aI-7
aI-26
aI-22
aI-18
aI-12
aI-5
aI-18
aI-4
aI-13
aI3
aI8
aI-8
aI-1
aI-3
aI8
aI-8
aI-7
aI-10
aI-6
aI-3
aI-1
aI1
aI-3
aI-14
aI-15
aI-3
aI2
aI12
aI20
aI29
aI25
aI19
aI12
aI1
aI-2
aI-9
aI-3
aI-9
aI-9
aI-6
aI-6
aI-6
aI-6
aI-8
aI-8
aI-3
aI-8
aI-8
aI-1
aI0
aI0
aI0
aI0
aI0
aI0
aI1
aI1
aI1
aI1
aI0
aI0
aI0
aI0
aI0
aI-5
aI-20
aI-10
aI-16
aI-12
aI-14
aI-18
aI-4
aI-2
aI-3
aI-3
aI-1
aI8
aI6
aI0
aI-1
aI-23
aI-18
aI-11
aI-5
aI-1
aI7
aI3
aI-3
aI-4
aI-13
aI-11
aI14
aI9
aI24
aI22
aI10
aI12
aI0
aI3
aI5
aI-8
aI-4
aI-9
aI-6
aI-6
aI-6
aI-6
aI-8
aI-1
aI4
aI-2
aI-2
aI-2
aI0
aI0
aI0
aI0
aI0
aI0
aI1
aI1
aI1
aI1
aI0
aI0
aI0
aI0
aI0
aI-7
aI5
aI6
aI11
aI7
aI12
aI8
aI5
aI7
aI13
aI16
aI11
aI14
aI17
aI16
aI4
aI-20
aI-8
aI-1
aI-1
aI5
aI1
aI-12
aI-5
aI-9
aI-6
aI-3
aI4
aI12
aI7
aI0
aI7
aI8
aI1
aI4
aI4
aI6
aI4
aI9
aI-2
aI-9
aI4
aI4
aI-2
aI-2
aI9
aI4
aI4
aI4
aI0
aI0
aI0
aI0
aI0
aI0
aI1
aI1
aI1
aI1
aI0
aI0
aI0
aI0
aI0
aI-13
aI10
aI10
aI15
aI7
aI12
aI5
aI8
aI6
aI11
aI16
aI10
aI10
aI17
aI17
aI12
aI5
aI-3
aI-2
aI0
aI-6
aI-2
aI-2
aI-11
aI1
aI-9
aI-10
aI7
aI1
aI-4
aI-9
aI-4
aI0
aI8
aI4
aI4
aI4
aI4
aI4
aI3
aI4
aI5
aI4
aI4
aI-2
aI9
aI4
aI4
aI4
aI0
aI0
aI0
aI0
aI0
aI0
aI1
aI1
aI0
aI0
aI-1
aI0
aI-4
aI-5
aI-4
aI-17
aI-2
aI-9
aI5
aI-6
aI-8
aI-4
aI-1
aI-5
aI24
aI1
aI-28
aI10
aI17
aI12
aI12
aI-14
aI-4
aI-1
aI25
aI16
aI28
aI1
aI-11
aI-7
aI-15
aI7
aI-11
aI0
aI12
aI4
aI26
aI-34
aI10
aI3
aI2
aI15
aI12
aI0
aI9
aI10
aI4
aI5
aI4
aI-2
aI9
aI4
aI3
aI3
aI0
aI0
aI0
aI0
aI0
aI0
aI1
aI1
aI-1
aI0
aI0
aI0
aI0
aI-1
aI-1
aI-17
aI-4
aI-7
aI-1
aI-2
aI4
aI-15
aI-3
aI-5
aI-23
aI-14
aI-8
aI0
aI-17
aI-18
aI-16
aI3
aI4
aI5
aI-7
aI-19
aI-27
aI-12
aI12
aI15
aI14
aI-30
aI11
aI-4
aI22
aI-22
aI-19
aI28
aI8
aI15
aI10
aI4
aI6
aI4
aI7
aI20
aI4
aI4
aI4
aI4
aI4
aI9
aI3
aI3
aI0
aI0
aI0
aI0
aI0
aI0
aI1
aI1
aI0
aI-3
aI-4
aI-1
aI-1
aI0
aI0
aI-11
aI-2
aI1
aI-2
aI-5
aI-6
aI-8
aI-6
aI-6
aI4
aI-15
aI-25
aI-8
aI14
aI24
aI6
aI-30
aI0
aI5
aI20
aI5
aI8
aI-1
aI16
aI10
aI-16
aI-3
aI14
aI25
aI16
aI21
aI11
aI-10
aI-12
aI8
aI-2
aI5
aI15
aI8
aI13
aI8
aI4
aI4
aI4
aI4
aI3
aI8
aI3
aI3
aI0
aI0
aI0
aI0
aI0
aI0
aI1
aI1
aI0
aI1
aI-1
aI-5
aI-4
aI-4
aI-5
aI-1
aI-11
aI-7
aI1
aI-4
aI-12
aI-4
aI-6
aI0
aI-8
aI-12
aI0
aI-9
aI-18
aI-35
aI-27
aI2
aI10
aI-5
aI-5
aI5
aI10
aI5
aI6
aI-12
aI36
aI26
aI14
aI28
aI12
aI10
aI9
aI20
aI8
aI13
aI14
aI10
aI6
aI3
aI0
aI10
aI9
aI4
aI4
aI4
aI2
aI9
aI3
aI3
aI0
aI0
aI0
aI0
aI0
aI0
aI1
aI1
aI-4
aI0
aI-1
aI-4
aI-4
aI-5
aI-1
aI0
aI-3
aI-9
aI-11
aI-15
aI-3
aI-9
aI-7
aI-12
aI-11
aI4
aI-11
aI-16
aI-21
aI11
aI13
aI-4
aI-2
aI-3
aI9
aI9
aI-5
aI-6
aI-7
aI-7
aI0
aI12
aI36
aI7
aI14
aI17
aI20
aI19
aI0
aI10
aI15
aI12
aI9
aI7
aI3
aI17
aI9
aI10
aI4
aI4
aI4
aI9
aI3
aI3
aI0
aI0
aI0
aI0
aI0
aI0
aI1
aI1
aI-4
aI0
aI0
aI-4
aI-5
aI-1
aI0
aI6
aI-8
aI-14
aI-7
aI-4
aI-6
aI-11
aI-9
aI-10
aI-2
aI-6
aI-33
aI-28
aI6
aI-11
aI-21
aI-11
aI-10
aI-13
aI-10
aI-12
aI-18
aI-18
aI-4
aI4
aI-9
aI4
aI17
aI10
aI30
aI9
aI2
aI3
aI16
aI-2
aI11
aI15
aI7
aI16
aI18
aI-2
aI9
aI10
aI5
aI4
aI2
aI11
aI3
aI3
aI0
aI0
aI0
aI0
aI0
aI0
aI1
aI1
aI-4
aI0
aI0
aI-4
aI-1
aI0
aI-4
aI6
aI0
aI-10
aI-4
aI-14
aI-8
aI-11
aI-14
aI-15
aI-15
aI-43
aI-11
aI-14
aI-21
aI-22
aI-11
aI-7
aI5
aI-18
aI-3
aI-7
aI-2
aI-7
aI0
aI0
aI7
aI5
aI1
aI0
aI-1
aI10
aI14
aI16
aI5
aI2
aI14
aI9
aI2
aI11
aI23
aI2
aI9
aI10
aI5
aI4
aI2
aI11
aI8
aI8
aI7
aI7
aI0
aI0
aI7
aI7
aI8
aI1
aI0
aI3
aI2
aI-1
aI-8
aI-8
aI-1
aI-23
aI7
aI5
aI-3
aI17
aI4
aI-7
aI-18
aI-8
aI-8
aI-6
aI-18
aI-11
aI-7
aI-8
aI-8
aI-8
aI-7
aI-4
aI8
aI3
aI-6
aI-3
aI-10
aI-9
aI-10
aI-1
aI5
aI-20
aI-10
aI4
aI-22
aI0
aI-4
aI7
aI2
aI1
aI5
aI-1
aI-2
aI8
aI14
aI12
aI4
aI-4
aI-5
aI17
aI20
aI9
aI4
aI4
aI5
aI5
aI1
aI1
aI1
aI5
aI-1
aI0
aI-1
aI0
aI0
aI-8
aI0
aI-20
aI-3
aI6
aI0
aI-3
aI5
aI5
aI-9
aI-13
aI-12
aI-3
aI-3
aI-1
aI-2
aI-2
aI-2
aI-3
aI-6
aI5
aI7
aI-1
aI-5
aI-6
aI4
aI-4
aI-9
aI1
aI-2
aI-2
aI-10
aI-10
aI-6
aI-6
aI0
aI1
aI2
aI1
aI3
aI2
aI2
aI1
aI0
aI12
aI7
aI1
aI12
aI7
aI8
aI6
aI4
aI4
aI1
aI1
aI1
aI1
aI1
aI5
aI0
aI0
aI0
aI0
aI-1
aI-1
aI0
aI-12
aI1
aI8
aI-1
aI-2
aI-1
aI5
aI-6
aI-11
aI-7
aI-2
aI-2
aI3
aI-1
aI0
aI1
aI-2
aI-2
aI-9
aI10
aI-3
aI-5
aI-1
aI3
aI3
aI-2
aI3
aI-2
aI-8
aI-12
aI-10
aI-1
aI-6
aI-6
aI8
aI3
aI7
aI9
aI0
aI12
aI-6
aI-5
aI5
aI1
aI1
aI12
aI7
aI3
aI2
aI3
aI3
aI5
aI5
aI1
aI1
aI1
aI5
aI-1
aI-1
aI-1
aI0
aI0
aI0
aI0
aI-29
aI-1
aI8
aI-9
aI6
aI5
aI-9
aI-17
aI-12
aI1
aI0
aI-3
aI-5
aI-5
aI20
aI-5
aI1
aI3
aI3
aI-7
aI-14
aI-11
aI-11
aI-1
aI3
aI-9
aI-5
aI-1
aI-1
aI-11
aI-10
aI-5
aI-11
aI-15
aI3
aI6
aI1
aI2
aI1
aI-1
aI-10
aI-2
aI-2
aI1
aI1
aI12
aI7
aI2
aI2
aI3
aI3
aI5
aI5
aI1
aI1
aI1
aI5
aI0
aI2
aI-1
aI0
aI0
aI-1
aI0
aI-33
aI-4
aI9
aI1
aI-1
aI-2
aI2
aI-12
aI-9
aI-1
aI-2
aI-5
aI-3
aI0
aI4
aI-5
aI-11
aI-16
aI-16
aI-12
aI-21
aI-12
aI-10
aI3
aI0
aI3
aI-6
aI-10
aI-27
aI-6
aI-18
aI-7
aI-11
aI-5
aI8
aI2
aI2
aI2
aI3
aI16
aI-11
aI-2
aI-2
aI1
aI1
aI12
aI8
aI1
aI1
aI3
aI3
aI5
aI5
aI1
aI1
aI1
aI5
aI3
aI-1
aI0
aI0
aI-1
aI-1
aI0
aI14
aI-1
aI-3
aI-14
aI-2
aI-2
aI-1
aI-7
aI-3
aI0
aI-5
aI-3
aI5
aI5
aI5
aI-12
aI-11
aI-8
aI-8
aI-15
aI-21
aI-18
aI-19
aI-25
aI-12
aI-2
aI-10
aI-3
aI-20
aI-20
aI-6
aI-8
aI-2
aI-46
aI1
aI0
aI2
aI-4
aI2
aI10
aI1
aI-1
aI-2
aI1
aI-6
aI12
aI6
aI1
aI-1
aI3
aI3
aI5
aI5
aI1
aI1
aI1
aI1
aI3
aI-1
aI0
aI-1
aI0
aI0
aI-1
aI-1
aI-3
aI-4
aI7
aI-3
aI-3
aI-4
aI-7
aI-1
aI-1
aI2
aI1
aI2
aI3
aI-2
aI-7
aI2
aI-18
aI-18
aI-5
aI-13
aI-20
aI-18
aI-12
aI-17
aI-2
aI-12
aI-5
aI-11
aI-21
aI-3
aI-3
aI-3
aI-34
aI-3
aI-10
aI7
aI2
aI-3
aI-2
aI4
aI-1
aI-6
aI1
aI1
aI9
aI-1
aI1
aI-1
aI3
aI3
aI5
aI5
aI1
aI1
aI1
aI1
aI0
aI0
aI0
aI-1
aI0
aI0
aI-1
aI-7
aI1
aI4
aI5
aI3
aI1
aI-6
aI-4
aI-3
aI-2
aI1
aI0
aI2
aI1
aI4
aI4
aI2
aI-6
aI-27
aI-17
aI-52
aI-32
aI-13
aI-6
aI-21
aI-22
aI-28
aI-46
aI-25
aI-20
aI-9
aI-15
aI-20
aI-37
aI2
aI-4
aI-4
aI7
aI-4
aI-11
aI2
aI3
aI-6
aI-6
aI-6
aI8
aI-5
aI1
aI-1
aI3
aI3
aI1
aI5
aI1
aI1
aI1
aI1
aI3
aI-1
aI0
aI-1
aI-1
aI-1
aI0
aI-16
aI2
aI5
aI3
aI1
aI2
aI-2
aI-3
aI-5
aI-1
aI2
aI1
aI2
aI1
aI-1
aI3
aI-17
aI-11
aI-21
aI-19
aI-26
aI-13
aI-18
aI-42
aI-9
aI-17
aI-24
aI-30
aI-22
aI-7
aI-27
aI-5
aI-21
aI-73
aI-3
aI1
aI-11
aI5
aI8
aI-14
aI-4
aI2
aI-6
aI-6
aI3
aI-5
aI-5
aI-6
aI-8
aI3
aI3
aI1
aI1
aI1
aI1
aI1
aI1
aI0
aI4
aI0
aI0
aI0
aI0
aI0
aI-15
aI3
aI4
aI5
aI2
aI4
aI3
aI-1
aI-2
aI0
aI2
aI1
aI1
aI0
aI6
aI15
aI-7
aI-6
aI-7
aI-27
aI-16
aI-9
aI-31
aI-18
aI-17
aI-12
aI-19
aI-34
aI-10
aI-25
aI-39
aI-24
aI-15
aI-61
aI-9
aI-9
aI-9
aI-9
aI-9
aI-21
aI-23
aI4
aI-4
aI-5
aI4
aI-4
aI-4
aI-7
aI-2
aI3
aI3
aI1
aI1
aI5
aI1
aI1
aI1
aI0
aI0
aI4
aI0
aI0
aI0
aI0
aI0
aI5
aI7
aI3
aI5
aI5
aI-3
aI-2
aI-1
aI2
aI2
aI2
aI-9
aI-7
aI-4
aI1
aI4
aI-17
aI-5
aI-10
aI-22
aI-18
aI-2
aI12
aI-10
aI-13
aI0
aI-5
aI-27
aI-38
aI-9
aI-4
aI-11
aI-45
aI-2
aI-2
aI-8
aI-9
aI-9
aI-21
aI-14
aI4
aI-4
aI-10
aI4
aI2
aI3
aI0
aI-2
aI3
aI3
aI1
aI1
aI5
aI1
aI1
aI1
aI0
aI0
aI0
aI0
aI0
aI0
aI0
aI10
aI2
aI5
aI6
aI0
aI4
aI-1
aI7
aI0
aI2
aI4
aI4
aI5
aI-8
aI-8
aI3
aI-8
aI-19
aI-5
aI-1
aI-36
aI-45
aI2
aI-18
aI-9
aI-3
aI2
aI-13
aI-3
aI-27
aI-2
aI-12
aI2
aI-74
aI-2
aI-9
aI-7
aI-7
aI-7
aI-21
aI-14
aI-9
aI-10
aI-2
aI11
aI11
aI5
aI9
aI7
aI3
aI3
aI-6
aI1
aI1
aI1
aI1
aI1
aI0
aI0
aI0
aI0
aI0
aI0
aI0
aI17
aI-3
aI7
aI5
aI4
aI1
aI-1
aI7
aI0
aI7
aI0
aI4
aI3
aI3
aI5
aI3
aI0
aI-2
aI-6
aI5
aI-5
aI-3
aI-4
aI-2
aI-3
aI-8
aI-11
aI-3
aI-5
aI-4
aI-5
aI2
aI-7
aI-62
aI0
aI0
aI11
aI-7
aI-21
aI-14
aI-14
aI-10
aI-10
aI-1
aI5
aI12
aI12
aI9
aI7
aI3
aI3
aI-6
aI1
aI1
aI1
aI1
aI1
aI3
aI3
aI0
aI0
aI0
aI0
aI0
aI15
aI-4
aI7
aI3
aI7
aI0
aI0
aI1
aI-3
aI-6
aI-32
aI3
aI2
aI6
aI10
aI1
aI1
aI-2
aI2
aI-2
aI-24
aI-6
aI-11
aI-15
aI-11
aI-6
aI-1
aI-5
aI-10
aI-6
aI-9
aI-15
aI-19
aI-49
aI-2
aI-2
aI-2
aI0
aI-13
aI-14
aI-21
aI-10
aI-11
aI-2
aI12
aI11
aI11
aI9
aI10
aI3
aI3
aI-6
aI1
aI1
aI1
aI1
aI1
aI0
aI0
aI0
aI0
aI0
aI0
aI0
aI28
aI2
aI5
aI12
aI8
aI5
aI4
aI2
aI-4
aI0
aI2
aI3
aI7
aI7
aI5
aI2
aI7
aI0
aI-11
aI-13
aI-8
aI-3
aI-2
aI-6
aI-6
aI-11
aI-6
aI-10
aI-10
aI-11
aI-20
aI-20
aI-36
aI-44
aI-2
aI-2
aI-2
aI-2
aI8
aI-13
aI-21
aI-10
aI-11
aI-2
aI14
aI11
aI11
aI9
aI9
aI0
aI0
aI-6
aI1
aI1
aI1
aI1
aI1
aI0
aI0
aI0
aI0
aI0
aI0
aI0
aI34
aI9
aI8
aI12
aI8
aI4
aI3
aI7
aI-3
aI-3
aI3
aI3
aI7
aI7
aI3
aI2
aI3
aI-1
aI-3
aI1
aI-6
aI-6
aI-6
aI-6
aI-3
aI-6
aI-1
aI-3
aI-5
aI-6
aI-15
aI-19
aI-20
aI-37
aI-2
aI-2
aI-2
aI-2
aI-1
aI-6
aI-14
aI-5
aI1
aI2
aI5
aI11
aI11
aI9
aI9
aI-5
aI-5
aI-9
aI5
aI5
aI5
aI-6
aI7
aI4
aI2
aI2
aI2
aI1
aI1
aI1
aI36
aI13
aI2
aI5
aI9
aI2
aI3
aI15
aI2
aI2
aI3
aI2
aI2
aI3
aI4
aI0
aI1
aI-3
aI-3
aI-3
aI-2
aI-3
aI0
aI0
aI-6
aI-6
aI-1
aI-2
aI-2
aI-3
aI-1
aI-2
aI3
aI-26
aI4
aI-9
aI0
aI1
aI6
aI-6
aI-5
aI-5
aI7
aI2
aI3
aI10
aI9
aI20
aI20
aI-3
aI-7
aI-7
aI2
aI6
aI4
aI-5
aI2
aI-3
aI-1
aI-2
aI-1
aI-3
aI-3
aI-3
aI28
aI11
aI-1
aI7
aI-1
aI10
aI4
aI-1
aI8
aI-1
aI6
aI-2
aI-2
aI-2
aI-16
aI-3
aI-2
aI-3
aI-17
aI5
aI-2
aI-3
aI-3
aI-2
aI-2
aI-3
aI2
aI-2
aI-1
aI-3
aI0
aI2
aI9
aI17
aI3
aI4
aI6
aI0
aI-7
aI-4
aI-8
aI1
aI3
aI8
aI9
aI6
aI15
aI10
aI9
aI-3
aI-3
aI-7
aI0
aI6
aI8
aI0
aI2
aI-1
aI-2
aI-2
aI-3
aI-3
aI-3
aI-3
aI11
aI-1
aI-1
aI6
aI2
aI3
aI-1
aI0
aI8
aI-1
aI0
aI-2
aI2
aI-1
aI1
aI2
aI-3
aI-3
aI-3
aI0
aI-9
aI-3
aI-3
aI-2
aI-2
aI-2
aI3
aI0
aI-1
aI-2
aI12
aI3
aI2
aI21
aI-1
aI-6
aI-1
aI-2
aI-2
aI2
aI-2
aI2
aI2
aI4
aI-3
aI-1
aI7
aI1
aI1
aI0
aI0
aI0
aI0
aI6
aI8
aI0
aI2
aI-1
aI0
aI0
aI-3
aI-10
aI-3
aI-3
aI24
aI-1
aI-1
aI5
aI3
aI4
aI1
aI1
aI11
aI-1
aI2
aI2
aI1
aI1
aI-1
aI1
aI-14
aI-16
aI1
aI4
aI-3
aI-3
aI-3
aI-2
aI-2
aI-2
aI3
aI0
aI-1
aI-2
aI4
aI9
aI2
aI22
aI-1
aI-1
aI-6
aI-6
aI-2
aI3
aI-2
aI2
aI2
aI4
aI-3
aI-1
aI7
aI2
aI2
aI0
aI0
aI0
aI0
aI8
aI8
aI0
aI0
aI-2
aI3
aI-2
aI-3
aI-3
aI-3
aI-3
aI24
aI1
aI1
aI7
aI1
aI11
aI1
aI1
aI4
aI0
aI2
aI5
aI1
aI6
aI-5
aI-13
aI-3
aI-12
aI-2
aI2
aI-11
aI-7
aI0
aI-2
aI-3
aI-2
aI3
aI1
aI1
aI1
aI7
aI4
aI3
aI25
aI-1
aI-1
aI-1
aI-1
aI-1
aI4
aI-1
aI2
aI2
aI4
aI-2
aI5
aI4
aI2
aI3
aI1
aI1
aI0
aI4
aI8
aI6
aI0
aI-7
aI4
aI-1
aI-1
aI-2
aI-2
aI-2
aI-2
aI13
aI0
aI-1
aI6
aI4
aI5
aI2
aI3
aI7
aI1
aI3
aI3
aI10
aI3
aI21
aI2
aI-2
aI-27
aI-9
aI12
aI-3
aI-20
aI-3
aI-3
aI-3
aI-2
aI3
aI2
aI2
aI1
aI9
aI2
aI2
aI15
aI-2
aI-1
aI1
aI-1
aI-1
aI5
aI-7
aI4
aI2
aI3
aI-3
aI0
aI9
aI2
aI1
aI3
aI3
aI4
aI2
aI6
aI6
aI0
aI-6
aI4
aI-1
aI-1
aI-1
aI-2
aI-3
aI-3
aI18
aI1
aI0
aI9
aI0
aI2
aI2
aI6
aI5
aI2
aI9
aI0
aI2
aI-4
aI-1
aI-7
aI7
aI2
aI-4
aI-12
aI0
aI-25
aI-3
aI-2
aI-12
aI-2
aI3
aI2
aI2
aI4
aI7
aI7
aI4
aI19
aI-2
aI-1
aI-1
aI-1
aI-1
aI2
aI-2
aI0
aI2
aI4
aI-1
aI0
aI5
aI1
aI1
aI3
aI3
aI2
aI2
aI6
aI6
aI0
aI-6
aI0
aI-6
aI-3
aI-2
aI-2
aI-3
aI-3
aI4
aI-1
aI0
aI7
aI-1
aI3
aI0
aI8
aI5
aI2
aI6
aI6
aI1
aI7
aI3
aI4
aI0
aI-29
aI-4
aI3
aI2
aI-10
aI-2
aI-3
aI-3
aI-2
aI8
aI2
aI2
aI4
aI7
aI5
aI6
aI23
aI-2
aI-1
aI-1
aI0
aI3
aI0
aI0
aI-1
aI-1
aI5
aI-2
aI-1
aI5
aI0
aI0
aI3
aI3
aI2
aI2
aI6
aI6
aI0
aI-6
aI2
aI0
aI-3
aI-3
aI-3
aI-3
aI-3
aI2
aI-1
aI1
aI2
aI2
aI1
aI0
aI9
aI4
aI1
aI2
aI4
aI-1
aI10
aI1
aI0
aI4
aI14
aI4
aI-6
aI1
aI-3
aI-3
aI-3
aI-3
aI0
aI5
aI2
aI2
aI5
aI5
aI3
aI5
aI21
aI-2
aI-1
aI-1
aI0
aI3
aI3
aI0
aI-1
aI-1
aI4
aI6
aI-2
aI5
aI0
aI0
aI2
aI2
aI6
aI6
aI6
aI4
aI3
aI-3
aI-5
aI-13
aI-10
aI-8
aI-8
aI-3
aI-10
aI5
aI-7
aI-5
aI11
aI1
aI7
aI1
aI7
aI5
aI3
aI4
aI2
aI3
aI23
aI6
aI4
aI1
aI-2
aI-23
aI-6
aI-7
aI0
aI-3
aI-2
aI-2
aI-2
aI1
aI3
aI5
aI1
aI1
aI7
aI3
aI13
aI-2
aI-1
aI-1
aI-1
aI-2
aI5
aI1
aI-1
aI-1
aI4
aI6
aI-3
aI4
aI0
aI0
aI2
aI2
aI6
aI6
aI4
aI4
aI3
aI-3
aI-5
aI-5
aI-15
aI-10
aI-3
aI-3
aI-3
aI-10
aI-7
aI-2
aI11
aI1
aI1
aI-1
aI5
aI5
aI3
aI9
aI2
aI15
aI5
aI11
aI1
aI-1
aI2
aI-16
aI2
aI-1
aI-29
aI-3
aI-2
aI-2
aI-1
aI4
aI3
aI3
aI0
aI1
aI3
aI3
aI12
aI-2
aI-1
aI3
aI0
aI-2
aI5
aI2
aI-1
aI-1
aI6
aI-1
aI-3
aI4
aI1
aI0
aI2
aI2
aI5
aI3
aI4
aI4
aI3
aI-1
aI1
aI-5
aI-15
aI-10
aI-10
aI-8
aI-8
aI-10
aI-3
aI0
aI10
aI2
aI2
aI3
aI2
aI10
aI7
aI8
aI23
aI15
aI18
aI-8
aI13
aI8
aI-8
aI-4
aI9
aI2
aI-29
aI-2
aI-2
aI-10
aI3
aI7
aI-1
aI-1
aI0
aI0
aI3
aI3
aI16
aI-2
aI-1
aI0
aI1
aI0
aI10
aI4
aI3
aI7
aI8
aI0
aI0
aI6
aI1
aI2
aI0
aI0
aI3
aI5
aI6
aI4
aI5
aI-8
aI-2
aI-3
aI-10
aI-17
aI-8
aI-8
aI-3
aI1
aI-1
aI-2
aI4
aI3
aI4
aI1
aI0
aI7
aI2
aI3
aI10
aI4
aI-8
aI12
aI0
aI6
aI-10
aI-15
aI-15
aI-14
aI-8
aI-3
aI-2
aI-2
aI2
aI3
aI-1
aI0
aI0
aI0
aI3
aI3
aI31
aI0
aI0
aI0
aI-1
aI1
aI8
aI3
aI7
aI7
aI7
aI0
aI5
aI5
aI2
aI2
aI0
aI0
aI3
aI3
aI6
aI6
aI1
aI-1
aI-12
aI-12
aI-10
aI-3
aI-8
aI-10
aI-15
aI4
aI1
aI-2
aI6
aI3
aI1
aI1
aI3
aI4
aI4
aI3
aI4
aI4
aI-8
aI2
aI16
aI-2
aI-11
aI-16
aI-1
aI-7
aI-8
aI-2
aI-1
aI-3
aI2
aI3
aI-1
aI1
aI1
aI0
aI3
aI9
aI30
aI-1
aI-1
aI-1
aI3
aI5
aI4
aI4
aI7
aI7
aI10
aI3
aI2
aI8
aI5
aI5
aI0
aI0
aI3
aI3
aI4
aI5
aI1
aI-1
aI-8
aI-10
aI-1
aI-8
aI-10
aI-10
aI-15
aI5
aI-3
aI-3
aI7
aI1
aI0
aI0
aI3
aI6
aI1
aI2
aI3
aI4
aI13
aI1
aI17
aI2
aI-3
aI-14
aI-2
aI-17
aI-3
aI-1
aI-3
aI1
aI-2
aI3
aI-1
aI0
aI-1
aI0
aI5
aI2
aI38
aI-1
aI-1
aI-14
aI3
aI6
aI4
aI3
aI7
aI7
aI9
aI1
aI-2
aI4
aI1
aI1
aI-3
aI-3
aI-4
aI3
aI4
aI7
aI-1
aI-1
aI-9
aI-15
aI-13
aI-8
aI-3
aI-10
aI-15
aI1
aI1
aI-4
aI6
aI2
aI3
aI3
aI0
aI5
aI3
aI2
aI3
aI4
aI5
aI7
aI4
aI1
aI-3
aI-2
aI-1
aI-9
aI-3
aI-1
aI-3
aI1
aI-2
aI3
aI-1
aI-1
aI-2
aI0
aI2
aI5
aI31
aI0
aI-6
aI-1
aI0
aI1
aI1
aI0
aI5
aI5
aI4
aI-3
aI-2
aI4
aI1
aI1
aI2
aI-2
aI-3
aI3
aI4
aI7
aI-6
aI-1
aI-2
aI-14
aI-10
aI-10
aI-8
aI-8
aI-10
aI0
aI-1
aI3
aI2
aI2
aI0
aI0
aI1
aI1
aI2
aI2
aI2
aI4
aI18
aI-1
aI10
aI-1
aI8
aI0
aI4
aI-3
aI-2
aI-2
aI-3
aI-3
aI-1
aI1
aI-1
aI-2
aI0
aI-2
aI2
aI2
aI28
aI-1
aI-2
aI0
aI0
aI1
aI1
aI-1
aI5
aI6
aI5
aI-2
aI-2
aI4
aI1
aI1
aI-1
aI-3
aI-8
aI2
aI6
aI4
aI-2
aI0
aI4
aI4
aI3
aI0
aI-2
aI-9
aI-2
aI3
aI3
aI-3
aI2
aI2
aI6
aI7
aI4
aI2
aI1
aI2
aI1
aI3
aI4
aI7
aI5
aI-15
aI5
aI-2
aI-2
aI-2
aI0
aI0
aI-1
aI1
aI-4
aI1
aI1
aI2
aI5
aI2
aI-1
aI-1
aI23
aI-7
aI-15
aI3
aI5
aI6
aI6
aI14
aI-2
aI0
aI-6
aI-6
aI-9
aI-14
aI-4
aI2
aI-8
aI-8
aI-8
aI-6
aI0
aI-2
aI-2
aI-4
aI-8
aI-7
aI-8
aI-8
aI-8
aI-8
aI-8
aI3
aI1
aI2
aI4
aI1
aI8
aI2
aI2
aI2
aI3
aI2
aI0
aI4
aI3
aI1
aI2
aI-1
aI-3
aI3
aI3
aI3
aI3
aI4
aI7
aI2
aI4
aI4
aI4
aI6
aI6
aI6
aI-1
aI8
aI21
aI2
aI2
aI1
aI-6
aI2
aI-5
aI7
aI1
aI-3
aI-5
aI-5
aI-5
aI-5
aI-5
aI-5
aI-8
aI-8
aI-8
aI-6
aI0
aI-2
aI-2
aI-4
aI-4
aI-3
aI-8
aI-8
aI-8
aI-8
aI-8
aI5
aI1
aI4
aI4
aI1
aI9
aI2
aI1
aI2
aI1
aI1
aI1
aI2
aI1
aI3
aI1
aI-3
aI-2
aI4
aI3
aI4
aI2
aI4
aI8
aI3
aI4
aI4
aI6
aI6
aI7
aI5
aI10
aI6
aI22
aI-5
aI2
aI2
aI-6
aI2
aI6
aI8
aI1
aI-3
aI-5
aI-5
aI-5
aI-5
aI-5
aI-5
aI-8
aI-8
aI-8
aI-6
aI0
aI-1
aI-2
aI-4
aI-7
aI-3
aI-8
aI-8
aI-8
aI-8
aI-8
aI-23
aI-1
aI1
aI-3
aI1
aI9
aI5
aI2
aI1
aI1
aI2
aI1
aI2
aI1
aI1
aI1
aI-1
aI-2
aI4
aI5
aI2
aI2
aI3
aI7
aI4
aI4
aI5
aI7
aI5
aI8
aI7
aI5
aI9
aI26
aI-6
aI-5
aI2
aI1
aI1
aI6
aI-5
aI1
aI-3
aI-5
aI-5
aI-5
aI-5
aI-5
aI-5
aI-8
aI-8
aI-4
aI-2
aI0
aI0
aI-2
aI-4
aI-8
aI-4
aI-8
aI-8
aI-8
aI-8
aI-8
aI-29
aI5
aI-15
aI-16
aI3
aI7
aI5
aI2
aI1
aI0
aI1
aI1
aI1
aI1
aI0
aI0
aI-1
aI-3
aI2
aI3
aI2
aI3
aI5
aI6
aI3
aI5
aI12
aI15
aI6
aI9
aI7
aI5
aI12
aI10
aI1
aI-5
aI2
aI1
aI-5
aI2
aI-1
aI1
aI-3
aI-5
aI-5
aI-5
aI-5
aI-5
aI-5
aI-8
aI-4
aI-4
aI-4
aI1
aI0
aI-2
aI-2
aI-3
aI-4
aI-8
aI-8
aI-8
aI-8
aI-8
aI-46
aI7
aI7
aI3
aI-13
aI2
aI6
aI5
aI0
aI-5
aI0
aI0
aI0
aI0
aI0
aI0
aI-3
aI-3
aI2
aI3
aI2
aI4
aI4
aI7
aI10
aI9
aI21
aI6
aI17
aI-5
aI7
aI8
aI14
aI23
aI1
aI-6
aI1
aI1
aI-1
aI-1
aI8
aI1
aI-3
aI-5
aI-5
aI-5
aI-5
aI-5
aI-5
aI-4
aI-4
aI-1
aI-1
aI1
aI0
aI-2
aI-2
aI-3
aI-8
aI-4
aI-4
aI-8
aI-8
aI-8
aI-23
aI-5
aI9
aI-3
aI3
aI-4
aI9
aI-12
aI2
aI9
aI0
aI1
aI0
aI0
aI0
aI0
aI-3
aI-3
aI2
aI4
aI3
aI5
aI1
aI17
aI8
aI-8
aI4
aI1
aI-6
aI12
aI-6
aI17
aI0
aI32
aI-6
aI2
aI1
aI-6
aI-1
aI-1
aI7
aI1
aI-3
aI-5
aI-5
aI-5
aI-5
aI-5
aI-5
aI-4
aI-4
aI-1
aI-1
aI1
aI0
aI-2
aI-1
aI-1
aI-8
aI-4
aI-4
aI-8
aI-8
aI-4
aI2
aI19
aI-6
aI7
aI-1
aI-7
aI0
aI16
aI-9
aI-5
aI-9
aI-1
aI-3
aI-7
aI6
aI-6
aI-3
aI-1
aI3
aI7
aI11
aI12
aI-1
aI4
aI-16
aI24
aI-13
aI24
aI17
aI5
aI4
aI11
aI10
aI21
aI-5
aI2
aI-5
aI-1
aI6
aI2
aI0
aI1
aI1
aI-5
aI-5
aI-5
aI-5
aI-5
aI-5
aI-1
aI-1
aI-1
aI-1
aI1
aI0
aI-1
aI-1
aI0
aI0
aI-2
aI-4
aI-4
aI-4
aI-4
aI-2
aI16
aI6
aI25
aI18
aI28
aI11
aI17
aI19
aI1
aI2
aI14
aI14
aI-8
aI-6
aI-12
aI17
aI-29
aI-6
aI-7
aI-10
aI-10
aI-1
aI11
aI10
aI14
aI1
aI35
aI21
aI19
aI10
aI7
aI12
aI16
aI-1
aI-1
aI-1
aI-1
aI-1
aI1
aI1
aI1
aI1
aI-5
aI-5
aI-5
aI-5
aI-5
aI-5
aI-5
aI-5
aI-1
aI-1
aI1
aI1
aI-1
aI-1
aI0
aI0
aI-2
aI-2
aI-2
aI-4
aI-2
aI-11
aI12
aI12
aI15
aI14
aI24
aI10
aI8
aI24
aI9
aI19
aI32
aI22
aI-6
aI-2
aI0
aI-9
aI-12
aI-4
aI-4
aI-10
aI-4
aI-10
aI15
aI6
aI6
aI19
aI20
aI22
aI13
aI14
aI10
aI11
aI-29
aI-1
aI-1
aI-1
aI-1
aI-1
aI1
aI1
aI1
aI1
aI-5
aI-5
aI-5
aI-5
aI-5
aI-5
aI-3
aI-3
aI-3
aI-3
aI-3
aI-3
aI1
aI1
aI1
aI1
aI1
aI1
aI1
aI-2
aI-6
aI-1
aI23
aI18
aI20
aI0
aI-9
aI19
aI14
aI26
aI39
aI29
aI10
aI6
aI-3
aI-5
aI-10
aI-26
aI-8
aI-7
aI-7
aI-8
aI-1
aI5
aI-5
aI0
aI9
aI8
aI-11
aI-10
aI-5
aI4
aI-7
aI-8
aI-9
aI-1
aI-1
aI-1
aI-1
aI-1
aI1
aI1
aI1
aI1
aI-1
aI-1
aI-1
aI-1
aI-1
aI-1
aI-3
aI-3
aI-3
aI-3
aI-3
aI-3
aI1
aI1
aI1
aI1
aI1
aI1
aI1
aI1
aI-3
aI3
aI-18
aI-2
aI17
aI-7
aI21
aI20
aI-5
aI10
aI14
aI19
aI6
aI8
aI5
aI2
aI-4
aI-3
aI-7
aI-1
aI4
aI8
aI5
aI9
aI6
aI-6
aI-1
aI14
aI1
aI-2
aI3
aI-6
aI4
aI6
aI-3
aI-1
aI-1
aI-1
aI-1
aI-1
aI1
aI1
aI1
aI1
aI-1
aI-1
aI-1
aI-1
aI-1
aI-1
aI-4
aI-4
aI-3
aI-3
aI-3
aI-3
aI1
aI1
aI1
aI1
aI-2
aI-2
aI-7
aI-7
aI-7
aI-13
aI-15
aI-11
aI12
aI-5
aI-5
aI-10
aI-5
aI-4
aI-8
aI2
aI-6
aI8
aI14
aI-1
aI0
aI7
aI-3
aI8
aI-5
aI-2
aI-4
aI0
aI-15
aI-2
aI-9
aI-18
aI26
aI34
aI30
aI20
aI10
aI4
aI-14
aI-5
aI-5
aI-5
aI-1
aI-1
aI1
aI1
aI1
aI1
aI-1
aI-1
aI-1
aI-1
aI-1
aI-1
aI-4
aI-4
aI-3
aI-3
aI-3
aI-3
aI1
aI1
aI1
aI1
aI-2
aI-3
aI-7
aI-7
aI-7
aI-18
aI-2
aI-5
aI13
aI14
aI13
aI-9
aI-4
aI-3
aI2
aI2
aI1
aI-14
aI-11
aI1
aI-13
aI-36
aI12
aI17
aI-4
aI-5
aI-13
aI-2
aI-15
aI-13
aI-12
aI-14
aI20
aI20
aI12
aI24
aI18
aI22
aI-20
aI-5
aI-5
aI-5
aI-1
aI-1
aI1
aI1
aI1
aI1
aI-1
aI-1
aI-1
aI-1
aI-1
aI-1
aI-4
aI-4
aI-3
aI-3
aI-5
aI-5
aI-5
aI-1
aI-2
aI-2
aI-3
aI-3
aI-8
aI-8
aI-8
aI-8
aI-7
aI-7
aI-10
aI-5
aI7
aI-20
aI-12
aI-2
aI-12
aI-13
aI1
aI5
aI-21
aI-12
aI22
aI-48
aI3
aI16
aI11
aI-9
aI-10
aI-10
aI-20
aI-16
aI-3
aI-1
aI9
aI10
aI5
aI21
aI19
aI2
aI-32
aI-5
aI-5
aI-5
aI-5
aI-5
aI1
aI1
aI1
aI1
aI-1
aI-1
aI-1
aI-1
aI-1
aI-1
aI-4
aI-4
aI-3
aI-3
aI-5
aI-5
aI-5
aI-5
aI-2
aI-2
aI-3
aI-3
aI-8
aI-8
aI-8
aI-13
aI-11
aI-9
aI-11
aI-6
aI7
aI-3
aI-12
aI-2
aI-12
aI-31
aI1
aI5
aI-18
aI-11
aI16
aI-36
aI-5
aI11
aI-9
aI-9
aI-14
aI-10
aI-20
aI-18
aI-5
aI-3
aI9
aI12
aI22
aI21
aI19
aI-2
aI-8
aI-5
aI-5
aI-5
aI-5
aI-5
aI1
aI1
aI1
aI1
aI-1
aI-1
aI-1
aI-1
aI-1
aI-1
asbag0
(g8
g2
Ntp40
Rp41
(dp42
g12
I50
sg13
I4096
sg14
(lp43
I2
aI2
aI2
aI2
aI2
aI2
aI1
aI1
aI1
aI1
aI2
aI2
aI2
aI2
aI2
aI4
aI0
aI-1
aI-1
aI2
aI5
aI3
aI6
aI6
aI7
aI3
aI-5
aI-4
aI-6
aI-7
aI1
aI-1
aI-6
aI-9
aI-3
aI1
aI-2
aI-5
aI-5
aI-4
aI-7
aI-7
aI3
aI3
aI10
aI6
aI2
aI4
aI9
aI2
aI2
aI2
aI2
aI2
aI3
aI3
aI2
aI2
aI1
aI1
aI1
aI1
aI2
aI2
aI2
aI2
aI2
aI2
aI2
aI2
aI1
aI1
aI1
aI1
aI2
aI2
aI2
aI2
aI2
aI7
aI-2
aI-1
aI-1
aI1
aI5
aI3
aI5
aI6
aI5
aI3
aI-5
aI-4
aI-5
aI-7
aI1
aI0
aI-7
aI-9
aI0
aI1
aI-1
aI-5
aI-8
aI-1
aI-4
aI-7
aI3
aI3
aI10
aI6
aI2
aI3
aI7
aI2
aI1
aI2
aI2
aI2
aI3
aI3
aI2
aI2
aI1
aI1
aI1
aI1
aI2
aI2
aI2
aI2
aI2
aI2
aI2
aI2
aI1
aI1
aI1
aI1
aI2
aI2
aI2
aI2
aI2
aI0
aI-1
aI-2
aI-2
aI1
aI7
aI6
aI4
aI5
aI2
aI2
aI-7
aI-6
aI-6
aI-9
aI-1
aI-4
aI0
aI-4
aI1
aI1
aI-3
aI-9
aI-5
aI-5
aI-7
aI-7
aI-8
aI2
aI10
aI7
aI1
aI3
aI2
aI2
aI2
aI2
aI3
aI3
aI2
aI2
aI2
aI2
aI2
aI1
aI1
aI1
aI2
aI2
aI2
aI2
aI2
aI2
aI2
aI2
aI1
aI1
aI1
aI1
aI2
aI2
aI2
aI2
aI2
aI-2
aI-7
aI0
aI-6
aI-1
aI8
aI6
aI0
aI5
aI1
aI2
aI-6
aI-3
aI-9
aI-9
aI-1
aI-2
aI-1
aI-4
aI1
aI2
aI-5
aI-9
aI-3
aI-4
aI-7
aI-7
aI-9
aI1
aI8
aI7
aI1
aI0
aI5
aI2
aI2
aI2
aI3
aI3
aI2
aI2
aI2
aI2
aI2
aI2
aI1
aI1
aI2
aI2
aI2
aI2
aI2
aI2
aI2
aI2
aI1
aI1
aI1
aI1
aI2
aI2
aI2
aI2
aI2
aI-1
aI2
aI-2
aI3
aI3
aI8
aI3
aI-1
aI-2
aI-6
aI-4
aI-8
aI-6
aI-10
aI-10
aI-5
aI-3
aI-3
aI-6
aI-2
aI-2
aI-3
aI-6
aI-6
aI-6
aI0
aI-1
aI-6
aI-1
aI-3
aI-2
aI-6
aI-2
aI5
aI1
aI1
aI0
aI1
aI1
aI2
aI2
aI2
aI2
aI2
aI2
aI2
aI2
aI2
aI2
aI2
aI2
aI2
aI2
aI2
aI2
aI1
aI1
aI1
aI1
aI2
aI2
aI2
aI2
aI2
aI8
aI3
aI9
aI3
aI9
aI11
aI6
aI-1
aI-1
aI-3
aI-3
aI-5
aI-6
aI-8
aI-11
aI-6
aI-1
aI0
aI-4
aI-2
aI-1
aI-1
aI-4
aI-6
aI-5
aI0
aI2
aI-2
aI0
aI-4
aI-1
aI-3
aI-6
aI4
aI2
aI1
aI0
aI1
aI1
aI2
aI2
aI2
aI2
aI2
aI2
aI2
aI1
aI1
aI1
aI2
aI2
aI2
aI2
aI2
aI2
aI1
aI1
aI1
aI1
aI2
aI2
aI2
aI2
aI2
aI10
aI1
aI0
aI-1
aI2
aI2
aI0
aI-2
aI-7
aI-9
aI-8
aI-11
aI-11
aI-8
aI-15
aI-9
aI-7
aI0
aI-4
aI-4
aI-1
aI3
aI-1
aI-3
aI-6
aI-11
aI-8
aI-7
aI-5
aI-9
aI5
aI3
aI1
aI0
aI2
aI2
aI2
aI2
aI2
aI2
aI2
aI3
aI3
aI1
aI1
aI1
aI1
aI1
aI1
aI2
aI2
aI2
aI2
aI2
aI2
aI1
aI1
aI1
aI1
aI2
aI2
aI2
aI2
aI2
aI15
aI3
aI1
aI1
aI2
aI2
aI3
aI0
aI-7
aI-6
aI-7
aI-11
aI-13
aI-10
aI-10
aI-6
aI-6
aI2
aI-6
aI-5
aI0
aI2
aI9
aI-1
aI-2
aI-8
aI-5
aI-7
aI4
aI4
aI8
aI11
aI13
aI1
aI2
aI2
aI2
aI2
aI2
aI2
aI2
aI3
aI3
aI1
aI1
aI1
aI1
aI1
aI1
aI2
aI2
aI2
aI2
aI2
aI2
aI1
aI1
aI2
aI1
aI2
aI2
aI1
aI1
aI1
aI15
aI1
aI5
aI9
aI2
aI2
aI8
aI-5
aI6
aI-9
aI-6
aI0
aI-7
aI-5
aI-3
aI-1
aI-6
aI1
aI3
aI3
aI5
aI6
aI1
aI-7
aI-5
aI11
aI7
aI6
aI8
aI16
aI9
aI4
aI7
aI10
aI2
aI9
aI6
aI5
aI2
aI9
aI1
aI2
aI3
aI1
aI1
aI1
aI1
aI2
aI2
aI2
aI2
aI2
aI2
aI2
aI2
aI1
aI1
aI2
aI1
aI2
aI2
aI2
aI2
aI2
aI12
aI-1
aI2
aI0
aI4
aI1
aI16
aI4
aI-2
aI5
aI2
aI-4
aI0
aI-11
aI-7
aI-11
aI-3
aI-1
aI-3
aI-8
aI-9
aI-5
aI-2
aI-14
aI-13
aI3
aI12
aI8
aI3
aI5
aI1
aI1
aI7
aI15
aI6
aI4
aI4
aI10
aI3
aI7
aI6
aI2
aI2
aI1
aI1
aI0
aI1
aI2
aI2
aI2
aI2
aI2
aI2
aI2
aI2
aI1
aI1
aI1
aI0
aI1
aI2
aI2
aI2
aI2
aI16
aI1
aI1
aI6
aI9
aI1
aI2
aI9
aI2
aI0
aI1
aI-8
aI-2
aI-3
aI3
aI-6
aI5
aI2
aI5
aI4
aI0
aI2
aI5
aI2
aI-5
aI3
aI7
aI3
aI5
aI5
aI6
aI4
aI1
aI19
aI10
aI2
aI1
aI9
aI3
aI1
aI7
aI2
aI2
aI1
aI1
aI1
aI2
aI2
aI2
aI2
aI2
aI2
aI2
aI2
aI2
aI1
aI1
aI2
aI1
aI2
aI1
aI1
aI1
aI1
aI2
aI7
aI6
aI4
aI3
aI4
aI4
aI5
aI0
aI8
aI6
aI4
aI0
aI0
aI3
aI-2
aI0
aI3
aI-2
aI-2
aI-2
aI4
aI5
aI-10
aI1
aI6
aI5
aI11
aI14
aI4
aI7
aI6
aI6
aI21
aI6
aI5
aI5
aI4
aI8
aI5
aI8
aI2
aI2
aI1
aI1
aI2
aI1
aI2
aI2
aI2
aI2
aI2
aI2
aI2
aI2
aI1
aI1
aI1
aI1
aI2
aI1
aI1
aI1
aI2
aI2
aI-4
aI11
aI7
aI6
aI5
aI6
aI11
aI2
aI-1
aI0
aI0
aI5
aI-5
aI-4
aI1
aI-4
aI-3
aI1
aI3
aI0
aI-2
aI0
aI-3
aI-1
aI-1
aI-1
aI6
aI8
aI2
aI4
aI4
aI3
aI19
aI9
aI8
aI10
aI2
aI6
aI3
aI2
aI2
aI1
aI1
aI1
aI2
aI1
aI2
aI2
aI2
aI2
aI2
aI2
aI2
aI2
aI1
aI1
aI1
aI1
aI2
aI1
aI1
aI2
aI2
aI0
aI10
aI10
aI8
aI9
aI6
aI0
aI1
aI7
aI3
aI6
aI0
aI2
aI4
aI0
aI1
aI-1
aI1
aI0
aI-3
aI-3
aI-1
aI-1
aI3
aI4
aI9
aI6
aI5
aI11
aI7
aI4
aI6
aI3
aI18
aI5
aI5
aI6
aI6
aI5
aI8
aI5
aI2
aI1
aI1
aI1
aI2
aI1
aI2
aI2
aI2
aI2
aI2
aI2
aI2
aI2
aI1
aI1
aI1
aI1
aI2
aI1
aI2
aI2
aI1
aI0
aI1
aI9
aI9
aI4
aI5
aI5
aI6
aI8
aI-5
aI1
aI0
aI4
aI1
aI-5
aI-2
aI-1
aI-2
aI-6
aI-4
aI-5
aI-4
aI-1
aI-3
aI-7
aI2
aI6
aI8
aI6
aI5
aI6
aI6
aI5
aI18
aI6
aI6
aI6
aI6
aI2
aI5
aI3
aI2
aI1
aI1
aI1
aI2
aI1
aI2
aI2
aI2
aI2
aI2
aI2
aI2
aI2
aI1
aI1
aI2
aI0
aI1
aI0
aI0
aI0
aI0
aI10
aI-1
aI6
aI6
aI5
aI-1
aI5
aI5
aI5
aI3
aI6
aI5
aI2
aI2
aI4
aI2
aI2
aI2
aI2
aI6
aI1
aI3
aI3
aI2
aI4
aI2
aI2
aI3
aI3
aI7
aI8
aI6
aI3
aI11
aI5
aI1
aI3
aI5
aI0
aI6
aI9
aI2
aI0
aI0
aI0
aI1
aI1
aI1
aI-1
aI0
aI0
aI0
aI0
aI-1
aI-1
aI-1
aI0
aI0
aI-1
aI0
aI-1
aI-1
aI0
aI-1
aI3
aI6
aI4
aI7
aI4
aI4
aI5
aI6
aI6
aI7
aI6
aI5
aI5
aI2
aI2
aI7
aI2
aI3
aI1
aI5
aI2
aI2
aI2
aI2
aI2
aI2
aI2
aI3
aI4
aI3
aI4
aI3
aI2
aI11
aI5
aI1
aI2
aI1
aI6
aI3
aI2
aI1
aI1
aI0
aI-3
aI-2
aI-2
aI-4
aI-3
aI0
aI0
aI-1
aI-1
aI-1
aI-1
aI-1
aI0
aI-1
aI-1
aI-1
aI-1
aI0
aI0
aI-1
aI0
aI3
aI2
aI2
aI-2
aI3
aI2
aI2
aI2
aI2
aI2
aI2
aI2
aI1
aI1
aI3
aI3
aI2
aI2
aI2
aI2
aI2
aI2
aI2
aI2
aI2
aI2
aI4
aI3
aI3
aI2
aI4
aI3
aI-2
aI0
aI-1
aI4
aI-1
aI5
aI1
aI4
aI0
aI1
aI0
aI0
aI-2
aI-2
aI-3
aI-3
aI0
aI0
aI0
aI0
aI-1
aI-1
aI-1
aI0
aI0
aI0
aI0
aI-1
aI-1
aI-1
aI-1
aI2
aI3
aI3
aI1
aI0
aI3
aI1
aI0
aI2
aI3
aI0
aI-6
aI1
aI1
aI2
aI5
aI-3
aI3
aI3
aI2
aI3
aI2
aI2
aI2
aI2
aI2
aI2
aI4
aI3
aI3
aI2
aI2
aI4
aI0
aI-1
aI5
aI4
aI0
aI2
aI1
aI0
aI0
aI1
aI0
aI0
aI-2
aI-2
aI-3
aI-3
aI0
aI0
aI0
aI0
aI-1
aI-1
aI-1
aI0
aI-1
aI1
aI0
aI-1
aI-1
aI0
aI-1
aI1
aI1
aI1
aI4
aI-1
aI2
aI2
aI2
aI3
aI1
aI1
aI-3
aI0
aI4
aI1
aI2
aI-1
aI3
aI1
aI4
aI3
aI2
aI2
aI2
aI2
aI2
aI2
aI4
aI3
aI2
aI2
aI3
aI3
aI-1
aI3
aI4
aI3
aI0
aI3
aI4
aI1
aI0
aI1
aI0
aI0
aI-2
aI-2
aI-4
aI-4
aI0
aI0
aI0
aI0
aI-1
aI-1
aI-1
aI0
aI0
aI0
aI-1
aI-1
aI0
aI0
aI-1
aI3
aI3
aI2
aI3
aI0
aI2
aI2
aI3
aI1
aI1
aI1
aI-7
aI-5
aI-9
aI-1
aI4
aI3
aI5
aI1
aI5
aI2
aI2
aI-1
aI2
aI2
aI2
aI-1
aI4
aI3
aI2
aI5
aI3
aI2
aI-3
aI4
aI1
aI1
aI3
aI-1
aI4
aI4
aI0
aI1
aI-3
aI-3
aI-2
aI-2
aI-4
aI-4
aI0
aI0
aI0
aI0
aI-1
aI-1
aI-1
aI-1
aI1
aI0
aI-1
aI0
aI-1
aI-1
aI0
aI1
aI3
aI1
aI2
aI-1
aI2
aI2
aI3
aI2
aI0
aI-1
aI-2
aI-6
aI-3
aI-7
aI6
aI3
aI4
aI3
aI6
aI4
aI4
aI4
aI4
aI4
aI2
aI4
aI4
aI3
aI4
aI2
aI1
aI4
aI-5
aI3
aI0
aI4
aI1
aI0
aI4
aI3
aI0
aI0
aI-3
aI-3
aI-1
aI-2
aI-4
aI-4
aI0
aI0
aI0
aI0
aI-1
aI-1
aI-1
aI-1
aI-1
aI-1
aI-1
aI0
aI-1
aI-1
aI0
aI3
aI1
aI1
aI1
aI0
aI2
aI5
aI1
aI2
aI2
aI1
aI3
aI0
aI-2
aI-1
aI2
aI1
aI1
aI-6
aI1
aI2
aI2
aI1
aI-1
aI-1
aI2
aI2
aI4
aI3
aI2
aI2
aI2
aI2
aI-4
aI1
aI3
aI6
aI0
aI1
aI1
aI0
aI1
aI0
aI-3
aI-3
aI-1
aI-3
aI-4
aI-4
aI0
aI0
aI-1
aI0
aI-1
aI-1
aI-1
aI-1
aI1
aI0
aI-1
aI0
aI0
aI0
aI-1
aI-3
aI2
aI2
aI-2
aI1
aI-2
aI2
aI-2
aI1
aI-2
aI-2
aI2
aI3
aI6
aI-3
aI-1
aI-1
aI-1
aI1
aI2
aI-2
aI2
aI2
aI1
aI4
aI2
aI2
aI4
aI3
aI2
aI3
aI2
aI-2
aI-2
aI0
aI4
aI1
aI1
aI4
aI3
aI1
aI1
aI0
aI-3
aI-3
aI-2
aI-3
aI-4
aI-4
aI0
aI0
aI-1
aI-1
aI-1
aI-1
aI-1
aI-1
aI-1
aI0
aI-1
aI-1
aI-1
aI-1
aI-1
aI-8
aI0
aI-1
aI2
aI-2
aI-2
aI4
aI-4
aI-5
aI0
aI-5
aI2
aI-1
aI-4
aI-5
aI-7
aI2
aI2
aI0
aI3
aI2
aI2
aI-1
aI4
aI2
aI2
aI2
aI4
aI3
aI2
aI2
aI-2
aI4
aI7
aI-1
aI-1
aI-1
aI-1
aI-1
aI-1
aI-1
aI2
aI1
aI-3
aI-3
aI-2
aI0
aI-1
aI-1
aI0
aI0
aI-1
aI-1
aI0
aI-1
aI-1
aI-1
aI-1
aI-1
aI0
aI-1
aI-1
aI-1
aI-1
aI-3
aI-3
aI-3
aI2
aI-6
aI-3
aI4
aI-12
aI-5
aI-1
aI-5
aI0
aI-5
aI-8
aI-3
aI0
aI0
aI0
aI1
aI3
aI2
aI-1
aI2
aI2
aI2
aI2
aI2
aI4
aI0
aI2
aI-5
aI3
aI2
aI9
aI-1
aI-1
aI0
aI-1
aI-1
aI-1
aI-1
aI2
aI1
aI-3
aI-3
aI2
aI0
aI-1
aI-1
aI0
aI0
aI-1
aI-1
aI0
aI-1
aI-1
aI-1
aI-1
aI-1
aI-1
aI-1
aI-1
aI-1
aI-1
aI-4
aI-2
aI-4
aI-9
aI-4
aI-7
aI-5
aI-12
aI-5
aI-11
aI-8
aI-2
aI-4
aI-7
aI-7
aI-4
aI4
aI-2
aI3
aI4
aI2
aI2
aI2
aI2
aI4
aI2
aI2
aI5
aI3
aI2
aI-5
aI2
aI1
aI0
aI-1
aI-1
aI-1
aI-1
aI-1
aI-1
aI-1
aI0
aI0
aI-2
aI0
aI2
aI0
aI-1
aI-1
aI0
aI0
aI-1
aI-1
aI-1
aI-1
aI-1
aI-1
aI-1
aI-1
aI-1
aI-1
aI-1
aI-1
aI-1
aI-9
aI0
aI-1
aI-7
aI-8
aI-4
aI-13
aI-6
aI-5
aI-8
aI-6
aI-5
aI0
aI-8
aI-9
aI-4
aI-4
aI4
aI2
aI6
aI2
aI2
aI2
aI2
aI2
aI2
aI2
aI7
aI3
aI2
aI5
aI2
aI2
aI-2
aI-1
aI-1
aI0
aI-1
aI-1
aI-1
aI-1
aI0
aI0
aI1
aI1
aI1
aI0
aI-1
aI-1
aI0
aI0
aI-1
aI-1
aI-1
aI-1
aI-1
aI-1
aI0
aI0
aI-1
aI-1
aI-1
aI-1
aI-1
aI-5
aI1
aI1
aI-6
aI-11
aI-6
aI-17
aI1
aI0
aI-5
aI-5
aI-5
aI-7
aI-10
aI-11
aI5
aI-2
aI2
aI2
aI5
aI3
aI2
aI2
aI2
aI2
aI2
aI2
aI4
aI5
aI4
aI3
aI5
aI2
aI8
aI-1
aI-1
aI-1
aI-1
aI0
aI-1
aI-1
aI0
aI0
aI1
aI1
aI1
aI0
aI-1
aI-1
aI0
aI0
aI-1
aI-1
aI-1
aI-1
aI-1
aI-1
aI-1
aI-1
aI-1
aI-1
aI-1
aI-1
aI-1
aI3
aI3
aI4
aI-11
aI-10
aI-8
aI-9
aI1
aI1
aI-9
aI-2
aI-5
aI-10
aI-8
aI-6
aI0
aI-2
aI2
aI-2
aI2
aI2
aI2
aI2
aI2
aI2
aI2
aI2
aI4
aI3
aI2
aI-2
aI2
aI3
aI13
aI-1
aI-1
aI-1
aI-1
aI0
aI0
aI-1
aI0
aI0
aI1
aI0
aI1
aI0
aI-1
aI-1
aI-1
aI-1
aI-1
aI-1
aI-1
aI-1
aI-1
aI-1
aI-1
aI-1
aI-1
aI-1
aI-1
aI-1
aI-1
aI-1
aI-2
aI1
aI-8
aI-8
aI0
aI-1
aI-5
aI-5
aI-5
aI-6
aI-8
aI-10
aI-7
aI-4
aI-2
aI-2
aI2
aI2
aI3
aI2
aI2
aI2
aI2
aI2
aI2
aI2
aI4
aI3
aI2
aI-2
aI3
aI1
aI10
aI-1
aI-1
aI-1
aI-1
aI0
aI0
aI-1
aI0
aI0
aI0
aI0
aI1
aI0
aI-1
aI-1
aI-1
aI-1
aI-1
aI-1
aI-1
aI-1
aI-1
aI-1
aI-1
aI-1
aI-1
aI-1
aI-1
aI-1
aI-1
aI-2
aI3
aI2
aI-7
aI-7
aI1
aI-7
aI-10
aI-2
aI-3
aI2
aI-11
aI-10
aI-19
aI-3
aI-3
aI-7
aI2
aI2
aI3
aI3
aI2
aI2
aI2
aI2
aI2
aI2
aI4
aI3
aI2
aI2
aI3
aI3
aI9
aI-1
aI-1
aI-1
aI-1
aI0
aI0
aI-1
aI0
aI0
aI0
aI0
aI1
aI0
aI-1
aI-1
aI-2
aI-2
aI-1
aI-1
aI0
aI-1
aI-1
aI-1
aI-2
aI-2
aI-2
aI-2
aI-2
aI-2
aI-2
aI-6
aI-3
aI-2
aI-3
aI-2
aI5
aI5
aI2
aI-9
aI-7
aI-6
aI-4
aI-3
aI-5
aI-9
aI-4
aI3
aI2
aI2
aI3
aI2
aI2
aI2
aI3
aI2
aI2
aI2
aI4
aI3
aI3
aI-1
aI3
aI2
aI11
aI-1
aI-1
aI-1
aI-2
aI-3
aI-2
aI-3
aI-1
aI-1
aI-1
aI-1
aI-2
aI1
aI-4
aI-1
aI-2
aI-2
aI-1
aI-1
aI0
aI0
aI-1
aI-1
aI-2
aI-2
aI-2
aI-2
aI-2
aI-2
aI-2
aI1
aI-4
aI-4
aI-2
aI-10
aI-4
aI4
aI3
aI-7
aI-11
aI-7
aI-3
aI-6
aI-7
aI-4
aI-6
aI2
aI2
aI2
aI3
aI2
aI2
aI2
aI3
aI2
aI-1
aI-1
aI-3
aI0
aI-1
aI-6
aI3
aI2
aI-14
aI-3
aI-3
aI-3
aI-3
aI-3
aI-2
aI-3
aI-2
aI-2
aI-2
aI-2
aI-2
aI-1
aI-2
aI-2
aI-1
aI-1
aI-1
aI-1
aI0
aI0
aI-1
aI-1
aI-1
aI-1
aI-2
aI-2
aI-2
aI-2
aI-2
aI0
aI-4
aI-4
aI-2
aI-10
aI-9
aI-3
aI-5
aI-15
aI-12
aI-8
aI-5
aI1
aI-9
aI-4
aI-1
aI0
aI2
aI3
aI3
aI2
aI2
aI2
aI3
aI2
aI-1
aI-1
aI-3
aI0
aI0
aI-5
aI2
aI3
aI-16
aI-3
aI-3
aI-3
aI-3
aI-3
aI-1
aI-3
aI-2
aI-2
aI-2
aI-2
aI-2
aI-1
aI-2
aI-2
aI-1
aI-1
aI-1
aI-1
aI0
aI0
aI-1
aI-1
aI-1
aI0
aI-2
aI-2
aI-2
aI-2
aI-2
aI-10
aI-6
aI-6
aI-4
aI-10
aI-5
aI-6
aI-5
aI-4
aI-8
aI-7
aI-5
aI-6
aI-2
aI1
aI-2
aI2
aI2
aI3
aI4
aI3
aI2
aI2
aI3
aI2
aI-1
aI-1
aI-4
aI-4
aI-5
aI-7
aI6
aI2
aI-10
aI-3
aI-3
aI-3
aI-3
aI-3
aI-1
aI-3
aI-2
aI-2
aI-2
aI-2
aI-1
aI-2
aI-2
aI-2
aI0
aI0
aI-1
aI-1
aI0
aI0
aI-1
aI-1
aI0
aI-1
aI-1
aI-1
aI-1
aI-1
aI-1
aI-6
aI-2
aI-2
aI-3
aI-9
aI-7
aI-8
aI-5
aI-7
aI-8
aI-4
aI-5
aI-3
aI-6
aI-6
aI-7
aI3
aI2
aI2
aI4
aI2
aI2
aI2
aI2
aI2
aI-1
aI-1
aI-4
aI-5
aI-5
aI-11
aI2
aI2
aI-9
aI-3
aI-3
aI-3
aI-3
aI-3
aI-1
aI-3
aI-2
aI-2
aI-2
aI-2
aI-2
aI-2
aI-3
aI-3
aI0
aI0
aI-1
aI-1
aI0
aI0
aI-1
aI-1
aI-1
aI-1
aI-1
aI-1
aI-1
aI-2
aI-2
aI-5
aI1
aI-2
aI-4
aI-10
aI-9
aI-7
aI-10
aI-7
aI-4
aI0
aI-2
aI-7
aI-6
aI-2
aI1
aI0
aI3
aI2
aI5
aI2
aI2
aI2
aI2
aI2
aI-1
aI-1
aI-1
aI-4
aI-10
aI-8
aI-2
aI-2
aI-8
aI-3
aI-3
aI-3
aI-3
aI-3
aI-3
aI-3
aI-2
aI-2
aI-2
aI-2
aI-2
aI-2
aI-3
aI-3
aI0
aI0
aI-1
aI-1
aI0
aI0
aI-2
aI-2
aI-2
aI-2
aI-2
aI-2
aI-2
aI-2
aI-2
aI-5
aI-1
aI-1
aI-5
aI-2
aI-5
aI0
aI-4
aI6
aI-8
aI-5
aI2
aI1
aI0
aI0
aI1
aI0
aI2
aI3
aI4
aI3
aI3
aI3
aI2
aI2
aI-1
aI-21
aI-4
aI-5
aI-10
aI-11
aI-2
aI-7
aI-11
aI-3
aI-3
aI-3
aI-3
aI-2
aI-3
aI-2
aI-2
aI-2
aI-2
aI-2
aI-2
aI-2
aI-3
aI-3
aI0
aI0
aI-1
aI-1
aI0
aI0
aI-2
aI-2
aI-2
aI-2
aI-2
aI-2
aI-2
aI-2
aI-2
aI-11
aI3
aI3
aI-2
aI-1
aI3
aI6
aI-4
aI5
aI-6
aI-12
aI3
aI1
aI0
aI2
aI-2
aI6
aI2
aI5
aI4
aI4
aI2
aI2
aI2
aI2
aI-2
aI-11
aI-4
aI-4
aI-7
aI-12
aI-3
aI-2
aI-12
aI-3
aI-3
aI-3
aI-3
aI-2
aI-3
aI-2
aI-2
aI-2
aI-2
aI-2
aI-2
aI-2
aI-3
aI-3
aI-1
aI-1
aI0
aI0
aI0
aI0
aI-1
aI-1
aI-2
aI-2
aI-2
aI-2
aI-2
aI-2
aI-2
aI-11
aI3
aI3
aI-5
aI-2
aI2
aI8
aI6
aI7
aI-6
aI-6
aI4
aI4
aI3
aI5
aI5
aI6
aI2
aI3
aI5
aI3
aI3
aI2
aI2
aI6
aI0
aI-5
aI-3
aI-5
aI-2
aI-3
aI2
aI2
aI-18
aI-3
aI-3
aI-3
aI-3
aI-3
aI-2
aI-2
aI-1
aI-1
aI-2
aI-2
aI-2
aI-2
aI-3
aI-3
aI-1
aI-1
aI0
aI0
aI0
aI0
aI-1
aI-1
aI-2
aI-2
aI-2
aI-2
aI-2
aI-2
aI-2
aI-1
aI5
aI5
aI-11
aI-3
aI0
aI5
aI7
aI6
aI-6
aI4
aI3
aI3
aI0
aI0
aI2
aI5
aI2
aI2
aI2
aI3
aI2
aI2
aI2
aI5
aI-6
aI-2
aI-3
aI1
aI-1
aI-5
aI-1
aI3
aI-12
aI-3
aI-3
aI-1
aI-2
aI-3
aI-2
aI-2
aI-1
aI-1
aI-2
aI-2
aI-2
aI-2
aI-3
aI-3
aI-1
aI-1
aI-1
aI-1
aI0
aI0
aI-1
aI-1
aI-2
aI-2
aI-2
aI-2
aI-2
aI-2
aI-2
aI-3
aI4
aI5
aI-10
aI-2
aI-1
aI6
aI6
aI3
aI-7
aI-2
aI3
aI3
aI0
aI0
aI4
aI3
aI2
aI2
aI4
aI2
aI2
aI2
aI2
aI-1
aI-10
aI-5
aI2
aI3
aI-6
aI-3
aI1
aI-2
aI-16
aI-3
aI-3
aI-3
aI-2
aI-2
aI-2
aI-2
aI-1
aI-1
aI-1
aI-2
aI-2
aI-2
aI-3
aI-3
aI-1
aI-1
aI-1
aI-1
aI0
aI0
aI-1
aI-2
aI-1
aI-2
aI-2
aI-2
aI-2
aI-2
aI-2
aI-9
aI-3
aI-3
aI-1
aI-14
aI-4
aI3
aI3
aI-5
aI0
aI-2
aI2
aI2
aI1
aI0
aI1
aI5
aI2
aI2
aI3
aI4
aI4
aI2
aI1
aI-2
aI-5
aI0
aI2
aI1
aI-6
aI-4
aI-2
aI-2
aI-9
aI-3
aI-3
aI-3
aI-3
aI-2
aI-2
aI-2
aI-1
aI-1
aI-1
aI-1
aI-2
aI-2
aI-3
aI-3
aI-1
aI-1
aI-1
aI-1
aI0
aI0
aI-2
aI-2
aI-2
aI-2
aI-2
aI-2
aI-2
aI-2
aI-2
aI-7
aI-1
aI-1
aI-5
aI-18
aI-1
aI2
aI-5
aI-3
aI-1
aI-4
aI2
aI2
aI-1
aI-1
aI0
aI3
aI2
aI2
aI5
aI3
aI2
aI2
aI1
aI3
aI-6
aI-1
aI1
aI0
aI-3
aI-8
aI1
aI1
aI-8
aI-3
aI-3
aI-3
aI-2
aI-1
aI-2
aI-2
aI-1
aI-1
aI0
aI0
aI-1
aI-1
aI-2
aI-2
aI-1
aI-1
aI-1
aI-1
aI0
aI-1
aI-2
aI-2
aI-2
aI-2
aI-2
aI-2
aI-2
aI-2
aI-2
aI-11
aI1
aI1
aI-2
aI-20
aI-4
aI2
aI-6
aI-3
aI-1
aI-4
aI3
aI2
aI-1
aI-1
aI2
aI2
aI2
aI2
aI2
aI4
aI2
aI1
aI2
aI-2
aI-1
aI-1
aI1
aI0
aI-4
aI-1
aI2
aI2
aI-8
aI-3
aI-3
aI-3
aI-2
aI-1
aI-1
aI-2
aI-1
aI-1
aI0
aI0
aI-2
aI-2
aI-3
aI-3
aI-2
aI-2
aI-1
aI-1
aI0
aI-1
aI-2
aI-2
aI-2
aI-2
aI-2
aI-2
aI-2
aI-2
aI-2
aI-3
aI-7
aI-5
aI-5
aI-16
aI2
aI2
aI-6
aI-5
aI-1
aI-4
aI3
aI2
aI-1
aI-1
aI1
aI2
aI2
aI2
aI2
aI3
aI2
aI1
aI2
aI-2
aI-1
aI-1
aI1
aI1
aI2
aI-1
aI2
aI2
aI-7
aI-3
aI-3
aI-3
aI-3
aI-2
aI-2
aI-3
aI-1
aI-1
aI-1
aI-1
aI-2
aI-2
aI-3
aI-3
aI-1
aI-1
aI-1
aI-1
aI0
aI-1
aI-2
aI-2
aI-2
aI-2
aI-2
aI-2
aI-2
aI-2
aI-2
aI-25
aI0
aI0
aI-3
aI-7
aI-9
aI-5
aI0
aI1
aI-4
aI1
aI5
aI3
aI0
aI1
aI4
aI4
aI3
aI2
aI3
aI2
aI1
aI2
aI2
aI2
aI1
aI0
aI0
aI0
aI-4
aI-3
aI2
aI2
aI-9
aI-4
aI-4
aI-4
aI-4
aI-3
aI-3
aI-4
aI-2
aI-1
aI-1
aI-1
aI-2
aI-3
aI-4
aI-4
aI-1
aI-1
aI-1
aI0
aI1
aI0
aI0
aI0
aI-2
aI-2
aI-1
aI-2
aI-2
aI-2
aI-2
aI-22
aI-2
aI-1
aI1
aI-3
aI-5
aI-6
aI-6
aI2
aI3
aI-4
aI2
aI2
aI4
aI3
aI3
aI5
aI6
aI2
aI0
aI-1
aI0
aI1
aI-2
aI-4
aI-2
aI-3
aI-8
aI-6
aI-20
aI-13
aI-2
aI-2
aI-10
aI-4
aI-4
aI-3
aI-2
aI-2
aI0
aI-1
aI-1
aI-1
aI-1
aI-1
aI-1
aI-3
aI-3
aI-3
aI-1
aI-1
aI-1
aI-1
aI1
aI0
aI0
aI0
aI-1
aI-1
aI-1
aI-1
aI-1
aI-2
aI-2
aI-17
aI3
aI3
aI-8
aI-8
aI-6
aI-1
aI0
aI1
aI3
aI3
aI4
aI3
aI3
aI3
aI2
aI2
aI-1
aI-7
aI-4
aI-6
aI-11
aI-11
aI-10
aI-4
aI-12
aI-12
aI-8
aI-10
aI-22
aI-17
aI-7
aI-7
aI-7
aI-1
aI-1
aI-1
aI-1
aI-1
aI-1
aI0
aI0
aI-1
aI-1
aI-1
aI-1
aI-1
aI-1
aI-1
aI-1
aI-1
aI-1
aI-1
aI1
aI0
aI0
aI0
aI-1
aI0
aI-1
aI-2
aI-2
aI-2
aI-2
aI-16
aI1
aI0
aI0
aI-7
aI-6
aI-1
aI0
aI0
aI0
aI2
aI3
aI3
aI3
aI3
aI2
aI0
aI-1
aI-9
aI-3
aI-7
aI-9
aI-12
aI-24
aI-10
aI-12
aI-9
aI-10
aI-10
aI-18
aI-15
aI-5
aI-8
aI-7
aI-1
aI-1
aI-1
aI-1
aI-1
aI0
aI0
aI0
aI-1
aI-1
aI-1
aI-1
aI-1
aI-1
aI-1
aI-1
aI-1
aI-1
aI-1
aI1
aI1
aI0
aI0
aI-2
aI-1
aI-2
aI-2
aI-1
aI-1
aI-2
aI-14
aI3
aI3
aI0
aI-3
aI-7
aI-2
aI-1
aI0
aI-1
aI2
aI3
aI2
aI2
aI4
aI4
aI2
aI0
aI-10
aI-11
aI-9
aI-14
aI-6
aI-23
aI-9
aI-9
aI-10
aI-10
aI-5
aI-22
aI-15
aI-5
aI-7
aI-2
aI-1
aI-1
aI-1
aI-1
aI-1
aI0
aI-1
aI0
aI-1
aI-1
aI-1
aI-1
aI-1
aI-1
aI-1
aI-1
aI-1
aI0
aI0
aI1
aI1
aI0
aI0
aI-1
aI0
aI-1
aI-1
aI-1
aI-1
aI-1
aI-14
aI1
aI2
aI-3
aI-6
aI-3
aI-1
aI-1
aI-1
aI2
aI2
aI2
aI2
aI3
aI3
aI4
aI4
aI0
aI-7
aI-16
aI-9
aI-8
aI-9
aI-20
aI-14
aI-8
aI-12
aI-6
aI-7
aI-20
aI-17
aI-6
aI-5
aI-2
aI-1
aI-1
aI-1
aI-1
aI-1
aI-1
aI0
aI0
aI-1
aI-1
aI-1
aI-1
aI-1
aI-1
aI-1
aI-1
aI0
aI0
aI0
aI1
aI1
aI0
aI0
aI0
aI-1
aI-2
aI-2
aI-1
aI-2
aI-2
aI-17
aI-3
aI-2
aI-10
aI1
aI-5
aI-2
aI-1
aI3
aI3
aI-1
aI2
aI2
aI2
aI2
aI4
aI-1
aI-1
aI-8
aI-10
aI-8
aI-9
aI-11
aI-21
aI-5
aI-8
aI-9
aI-10
aI-11
aI-19
aI-8
aI-5
aI-6
aI1
aI-1
aI-1
aI-1
aI-1
aI0
aI0
aI0
aI0
aI-1
aI-1
aI-1
aI-1
aI-1
aI-1
aI-1
aI0
aI0
aI1
aI1
aI1
aI1
aI0
aI0
aI-1
aI-2
aI-1
aI-1
aI-2
aI-2
aI-2
aI-12
aI5
aI-7
aI-8
aI0
aI-6
aI0
aI1
aI3
aI4
aI-1
aI2
aI4
aI2
aI4
aI2
aI2
aI-1
aI-12
aI-16
aI-10
aI-11
aI-6
aI-21
aI0
aI3
aI-8
aI-4
aI-5
aI-19
aI-9
aI-4
aI-5
aI3
aI-1
aI-1
aI-1
aI-1
aI0
aI0
aI0
aI0
aI-1
aI-1
aI-1
aI-1
aI-1
aI-1
aI-1
aI0
aI0
aI1
aI1
aI1
aI1
aI0
aI0
aI0
aI-2
aI-1
aI0
aI-1
aI-1
aI-1
aI-7
aI3
aI-1
aI-6
aI-10
aI-4
aI-3
aI4
aI6
aI7
aI-3
aI1
aI4
aI-3
aI-7
aI3
aI2
aI-2
aI-1
aI-6
aI0
aI-10
aI0
aI-12
aI-2
aI-6
aI5
aI-2
aI-16
aI-9
aI-5
aI-5
aI-4
aI-2
aI-1
aI-1
aI-1
aI0
aI0
aI-1
aI0
aI0
aI0
aI-1
aI-1
aI-1
aI-1
aI-1
aI-1
aI1
aI1
aI1
aI1
aI1
aI1
aI0
aI0
aI0
aI0
aI0
aI0
aI0
aI0
aI0
aI-6
aI-2
aI-6
aI-12
aI-4
aI-3
aI0
aI13
aI13
aI10
aI7
aI2
aI7
aI8
aI1
aI9
aI8
aI5
aI0
aI-3
aI-2
aI-3
aI-1
aI-12
aI7
aI11
aI13
aI2
aI-9
aI-2
aI-2
aI-2
aI0
aI-2
aI0
aI0
aI0
aI0
aI0
aI0
aI0
aI0
aI0
aI-1
aI-1
aI-1
aI0
aI0
aI0
aI0
aI0
aI1
aI1
aI1
aI1
aI0
aI0
aI0
aI0
aI0
aI0
aI0
aI0
aI0
aI3
aI-6
aI-6
aI-14
aI-10
aI-2
aI0
aI14
aI15
aI8
aI9
aI3
aI5
aI2
aI6
aI10
aI14
aI12
aI2
aI-3
aI-1
aI-1
aI-2
aI-9
aI-7
aI13
aI12
aI-8
aI-12
aI-5
aI-3
aI-3
aI-4
aI3
aI0
aI0
aI0
aI0
aI0
aI0
aI0
aI0
aI0
aI-1
aI-1
aI-1
aI-1
aI0
aI0
aI0
aI0
aI0
aI0
aI0
aI0
aI1
aI1
aI1
aI1
aI1
aI1
aI1
aI0
aI-1
aI5
aI3
aI-2
aI-14
aI-8
aI7
aI10
aI1
aI12
aI7
aI-1
aI1
aI-2
aI-1
aI-4
aI6
aI9
aI12
aI9
aI4
aI-6
aI-8
aI-4
aI-2
aI-1
aI1
aI0
aI0
aI0
aI-9
aI-10
aI-9
aI-5
aI8
aI0
aI0
aI0
aI0
aI0
aI0
aI0
aI0
aI0
aI0
aI0
aI0
aI0
aI0
aI0
aI0
aI0
aI0
aI0
aI0
aI0
aI1
aI1
aI1
aI1
aI1
aI1
aI1
aI1
aI0
aI7
aI9
aI2
aI-10
aI4
aI6
aI6
aI-2
aI14
aI1
aI-2
aI-2
aI-6
aI1
aI-10
aI2
aI7
aI5
aI-5
aI-3
aI-14
aI-4
aI-5
aI-2
aI-1
aI0
aI1
aI3
aI-2
aI-7
aI-7
aI-6
aI0
aI8
aI0
aI0
aI0
aI0
aI0
aI0
aI0
aI0
aI0
aI0
aI0
aI0
aI0
aI0
aI0
aI-1
aI-1
aI0
aI0
aI0
aI0
aI1
aI1
aI1
aI1
aI0
aI0
aI-1
aI-1
aI-1
aI3
aI0
aI1
aI-13
aI-4
aI6
aI2
aI7
aI7
aI3
aI7
aI13
aI8
aI8
aI3
aI8
aI13
aI-1
aI1
aI1
aI3
aI4
aI2
aI0
aI-1
aI0
aI-1
aI5
aI1
aI-7
aI-6
aI-3
aI0
aI5
aI-1
aI-1
aI-1
aI0
aI0
aI0
aI0
aI0
aI0
aI0
aI0
aI0
aI0
aI0
aI0
aI-1
aI-1
aI0
aI0
aI0
aI0
aI1
aI1
aI1
aI1
aI0
aI0
aI-1
aI-1
aI-1
aI0
aI1
aI-10
aI-18
aI-6
aI-5
aI0
aI11
aI1
aI11
aI10
aI12
aI7
aI9
aI2
aI3
aI11
aI7
aI-1
aI-4
aI-1
aI10
aI1
aI-1
aI-1
aI-1
aI-2
aI2
aI0
aI-8
aI-9
aI-7
aI-7
aI8
aI-1
aI-1
aI-1
aI0
aI0
aI0
aI0
aI0
aI0
aI0
aI0
aI0
aI0
aI0
aI0
aI-1
aI-1
aI0
aI0
aI0
aI0
aI0
aI1
aI0
aI0
aI0
aI0
aI-1
aI-1
aI-1
aI-2
aI1
aI-10
aI-17
aI-5
aI-7
aI-6
aI8
aI6
aI14
aI14
aI7
aI5
aI10
aI1
aI7
aI11
aI5
aI-2
aI-10
aI-5
aI-3
aI-3
aI-9
aI-7
aI5
aI4
aI-1
aI-4
aI-16
aI-13
aI-11
aI-11
aI6
aI-1
aI0
aI-1
aI-1
aI-1
aI0
aI0
aI0
aI0
aI0
aI0
aI0
aI0
aI0
aI0
aI-1
aI-1
aI0
aI0
aI0
aI0
aI0
aI0
aI0
aI0
aI0
aI0
aI-1
aI-1
aI-1
aI-9
aI0
aI-10
aI-17
aI-7
aI-7
aI-11
aI12
aI5
aI13
aI14
aI9
aI5
aI7
aI1
aI7
aI9
aI9
aI-2
aI-10
aI-5
aI-3
aI-3
aI-9
aI-9
aI4
aI4
aI-1
aI-4
aI-16
aI-13
aI-11
aI-11
aI1
aI-1
aI-1
aI-1
aI-1
aI-1
aI0
aI0
aI0
aI0
aI0
aI0
aI0
aI0
aI0
aI0
asbag0
(g8
g2
Ntp44
Rp45
(dp46
g12
I50
sg13
I4096
sg14
(lp47
I-1
aI-1
aI-1
aI-1
aI-1
aI-1
aI-1
aI-1
aI-1
aI-1
aI-1
aI-1
aI-1
aI-1
aI-1
aI-2
aI9
aI9
aI6
aI11
aI14
aI11
aI29
aI25
aI14
aI15
aI12
aI11
aI7
aI-3
aI9
aI-10
aI-5
aI-1
aI-14
aI-4
aI-11
aI-16
aI-10
aI-10
aI-4
aI-3
aI-4
aI-15
aI11
aI12
aI-4
aI-8
aI17
aI-1
aI-2
aI-2
aI-2
aI-2
aI-2
aI1
aI-8
aI-8
aI-1
aI-1
aI0
aI-1
aI3
aI3
aI-1
aI-1
aI-1
aI-1
aI-1
aI-1
aI-1
aI-1
aI-1
aI-1
aI-1
aI-1
aI-1
aI-1
aI-1
aI-3
aI6
aI9
aI6
aI11
aI14
aI6
aI27
aI19
aI6
aI8
aI11
aI12
aI10
aI4
aI10
aI-6
aI2
aI-6
aI-2
aI-1
aI1
aI-14
aI-7
aI-13
aI-9
aI-3
aI-13
aI-15
aI13
aI12
aI-4
aI-7
aI20
aI-1
aI-2
aI-2
aI-2
aI-2
aI-2
aI1
aI-8
aI-8
aI-1
aI-1
aI0
aI-1
aI3
aI3
aI-1
aI-1
aI-1
aI-1
aI-1
aI-1
aI-1
aI-1
aI-1
aI-1
aI-1
aI-1
aI-1
aI-1
aI-1
aI-8
aI4
aI2
aI4
aI12
aI2
aI7
aI12
aI12
aI-9
aI-2
aI-3
aI-2
aI12
aI1
aI0
aI-4
aI-5
aI-1
aI1
aI-4
aI6
aI0
aI-13
aI-12
aI-4
aI-5
aI-11
aI-8
aI17
aI11
aI-5
aI-7
aI22
aI-2
aI-1
aI-2
aI-9
aI-9
aI-8
aI-5
aI-5
aI-8
aI-8
aI-8
aI0
aI-1
aI1
aI1
aI-1
aI-1
aI-1
aI1
aI-1
aI-1
aI-1
aI-1
aI-1
aI-1
aI-1
aI-1
aI1
aI-1
aI-1
aI-2
aI10
aI5
aI7
aI12
aI13
aI7
aI6
aI12
aI-11
aI-5
aI0
aI3
aI4
aI3
aI3
aI1
aI-6
aI5
aI16
aI5
aI17
aI4
aI-5
aI-8
aI5
aI0
aI-8
aI2
aI14
aI14
aI-1
aI4
aI8
aI-2
aI-1
aI-1
aI-6
aI-6
aI-8
aI-5
aI-5
aI-8
aI-8
aI-8
aI-7
aI-5
aI-6
aI-6
aI-1
aI-1
aI-1
aI1
aI1
aI-1
aI-1
aI-1
aI-1
aI-1
aI-1
aI-1
aI1
aI-1
aI-1
aI3
aI10
aI2
aI4
aI-1
aI5
aI8
aI-12
aI3
aI7
aI-3
aI2
aI7
aI-5
aI-7
aI0
aI-1
aI4
aI-7
aI5
aI4
aI5
aI-4
aI-10
aI-6
aI-7
aI-5
aI-17
aI-11
aI3
aI4
aI-13
aI9
aI8
aI-1
aI2
aI3
aI2
aI2
aI-5
aI-5
aI-5
aI-5
aI2
aI2
aI3
aI2
aI2
aI-1
aI-1
aI-1
aI-1
aI1
aI1
aI-1
aI-1
aI-1
aI-1
aI-1
aI-1
aI1
aI-1
aI-1
aI-1
aI2
aI-4
aI-4
aI0
aI6
aI16
aI6
aI3
aI3
aI5
aI5
aI13
aI2
aI-6
aI0
aI1
aI0
aI-1
aI-2
aI7
aI11
aI-12
aI-1
aI-4
aI-7
aI-15
aI-9
aI-17
aI-1
aI-3
aI1
aI-19
aI-6
aI-8
aI-2
aI1
aI2
aI3
aI2
aI-5
aI-5
aI-5
aI-5
aI2
aI-1
aI0
aI-1
aI-1
aI-1
aI-1
aI-1
aI-1
aI1
aI1
aI-1
aI-1
aI-1
aI-1
aI-1
aI1
aI-1
aI-1
aI-1
aI-1
aI2
aI0
aI0
aI-7
aI-1
aI7
aI4
aI-1
aI-2
aI-7
aI-13
aI-4
aI-6
aI-13
aI-17
aI-3
aI-22
aI7
aI4
aI7
aI4
aI-1
aI-8
aI-12
aI-8
aI-9
aI1
aI-6
aI-12
aI-6
aI-19
aI-12
aI-11
aI-18
aI0
aI0
aI-7
aI0
aI1
aI0
aI3
aI-2
aI-2
aI2
aI-1
aI0
aI-1
aI-1
aI-1
aI-1
aI-1
aI-1
aI1
aI-1
aI-1
aI-1
aI-1
aI-1
aI-1
aI-1
aI-1
aI-1
aI-1
aI-1
aI10
aI5
aI2
aI-4
aI-1
aI7
aI6
aI4
aI-2
aI-9
aI-1
aI-6
aI-9
aI-15
aI-15
aI-9
aI-22
aI-6
aI1
aI4
aI-2
aI2
aI-3
aI-7
aI-1
aI-8
aI2
aI-2
aI-9
aI-2
aI-6
aI-6
aI-8
aI-10
aI0
aI0
aI0
aI0
aI0
aI1
aI0
aI0
aI-2
aI-1
aI-1
aI0
aI-1
aI-1
aI-1
aI-1
aI-1
aI-1
aI-1
aI-1
aI-1
aI-1
aI-1
aI-1
aI-4
aI-4
aI-1
aI8
aI5
aI8
aI16
aI1
aI-2
aI-1
aI3
aI18
aI17
aI-22
aI16
aI-21
aI-30
aI16
aI26
aI9
aI-26
aI-18
aI-21
aI-3
aI3
aI-21
aI-5
aI7
aI12
aI2
aI-31
aI-2
aI-17
aI13
aI21
aI-12
aI14
aI-3
aI19
aI-1
aI-5
aI-2
aI-5
aI16
aI7
aI-2
aI6
aI0
aI0
aI-1
aI-1
aI0
aI-1
aI-2
aI-2
aI-1
aI-1
aI1
aI-1
aI-1
aI-1
aI-1
aI-1
aI-4
aI-4
aI-1
aI-1
aI-1
aI-4
aI-4
aI20
aI9
aI2
aI0
aI15
aI-1
aI0
aI-11
aI-10
aI-9
aI3
aI-14
aI-15
aI2
aI-2
aI-6
aI7
aI-7
aI-20
aI-11
aI-2
aI14
aI9
aI8
aI4
aI1
aI-20
aI-4
aI16
aI-4
aI6
aI0
aI-19
aI-3
aI10
aI3
aI3
aI-6
aI-1
aI6
aI-4
aI0
aI0
aI-1
aI-1
aI0
aI0
aI-2
aI-2
aI-1
aI-1
aI1
aI-1
aI-1
aI-1
aI-1
aI-1
aI-4
aI8
aI8
aI-4
aI-4
aI-1
aI-1
aI13
aI5
aI-1
aI7
aI5
aI3
aI9
aI-1
aI3
aI11
aI2
aI13
aI5
aI13
aI-15
aI-3
aI4
aI-4
aI-3
aI0
aI27
aI7
aI-26
aI-36
aI4
aI11
aI3
aI1
aI-18
aI18
aI-8
aI-6
aI8
aI6
aI2
aI14
aI4
aI-5
aI-2
aI9
aI2
aI0
aI0
aI-1
aI-1
aI-1
aI-1
aI-2
aI-2
aI-1
aI-1
aI1
aI-1
aI-1
aI-1
aI-1
aI-1
aI-1
aI-1
aI-4
aI5
aI8
aI8
aI5
aI9
aI-5
aI5
aI-8
aI0
aI9
aI-2
aI10
aI3
aI-3
aI3
aI-7
aI4
aI9
aI21
aI15
aI3
aI3
aI7
aI-16
aI-20
aI-4
aI2
aI1
aI6
aI-25
aI-18
aI-3
aI-10
aI5
aI-8
aI-3
aI-6
aI1
aI-6
aI4
aI6
aI4
aI-5
aI0
aI13
aI1
aI0
aI-1
aI-1
aI-1
aI-1
aI-2
aI-2
aI-1
aI-1
aI1
aI-1
aI-1
aI-1
aI-1
aI-1
aI8
aI-4
aI-4
aI8
aI8
aI5
aI-4
aI0
aI10
aI-3
aI-8
aI8
aI0
aI7
aI-3
aI6
aI4
aI0
aI5
aI6
aI12
aI4
aI-8
aI-10
aI-7
aI2
aI-2
aI-14
aI-8
aI0
aI1
aI6
aI14
aI-3
aI-16
aI12
aI-6
aI-9
aI-11
aI4
aI2
aI4
aI-6
aI4
aI6
aI-6
aI-10
aI8
aI1
aI1
aI-1
aI-1
aI-8
aI-1
aI-2
aI-2
aI-1
aI-1
aI1
aI-1
aI-1
aI-1
aI-1
aI-1
aI8
aI-4
aI-1
aI8
aI5
aI-4
aI-1
aI0
aI-7
aI11
aI-1
aI-1
aI4
aI5
aI7
aI2
aI-6
aI2
aI20
aI-4
aI-12
aI5
aI8
aI8
aI-13
aI-3
aI4
aI12
aI8
aI-1
aI3
aI-18
aI-2
aI2
aI10
aI5
aI-12
aI1
aI-5
aI3
aI1
aI7
aI4
aI-5
aI4
aI13
aI-12
aI4
aI1
aI1
aI1
aI-1
aI-1
aI-8
aI-2
aI-2
aI-1
aI-1
aI1
aI-1
aI-1
aI-1
aI-1
aI-1
aI8
aI-4
aI-1
aI8
aI-4
aI-1
aI8
aI0
aI1
aI14
aI-8
aI1
aI1
aI6
aI0
aI2
aI4
aI8
aI-7
aI-1
aI5
aI2
aI-8
aI-3
aI-17
aI6
aI-10
aI-3
aI-3
aI-8
aI4
aI11
aI-1
aI-5
aI-3
aI1
aI-4
aI-6
aI-6
aI-7
aI2
aI5
aI-3
aI-5
aI5
aI11
aI-6
aI3
aI1
aI1
aI1
aI-1
aI-1
aI-8
aI-1
aI-1
aI-4
aI-4
aI1
aI-1
aI-4
aI-4
aI-4
aI-1
aI-1
aI2
aI2
aI-1
aI2
aI2
aI-1
aI-13
aI12
aI0
aI-10
aI6
aI3
aI3
aI8
aI-2
aI1
aI4
aI6
aI3
aI4
aI7
aI6
aI-2
aI-3
aI-2
aI-7
aI-3
aI0
aI1
aI1
aI-3
aI0
aI-2
aI-2
aI-1
aI-4
aI-12
aI-4
aI-3
aI11
aI2
aI4
aI5
aI10
aI5
aI-9
aI-9
aI17
aI9
aI2
aI-14
aI-9
aI-8
aI11
aI10
aI-8
aI-8
aI-7
aI-7
aI2
aI2
aI4
aI-5
aI1
aI-1
aI-1
aI-1
aI-1
aI2
aI-1
aI2
aI-1
aI-6
aI2
aI-1
aI1
aI-8
aI1
aI1
aI-1
aI0
aI-4
aI-4
aI-3
aI-3
aI-4
aI-5
aI-2
aI-8
aI-21
aI-6
aI5
aI-1
aI2
aI-4
aI-5
aI-4
aI-4
aI-3
aI-5
aI-5
aI-1
aI-1
aI17
aI-2
aI2
aI2
aI1
aI-2
aI-18
aI3
aI13
aI2
aI8
aI8
aI-14
aI10
aI6
aI-1
aI-10
aI-10
aI2
aI2
aI4
aI4
aI2
aI-5
aI-1
aI-1
aI-1
aI-1
aI-1
aI-1
aI-1
aI4
aI-6
aI5
aI0
aI4
aI-2
aI-8
aI0
aI1
aI1
aI-2
aI-4
aI3
aI-1
aI3
aI7
aI-10
aI-3
aI-4
aI-4
aI-1
aI3
aI-12
aI-3
aI-3
aI-4
aI-3
aI-2
aI-3
aI-4
aI-3
aI-7
aI2
aI9
aI2
aI1
aI3
aI3
aI3
aI-23
aI2
aI14
aI1
aI8
aI8
aI-14
aI8
aI3
aI0
aI2
aI2
aI-7
aI-7
aI4
aI4
aI2
aI-5
aI1
aI-1
aI-1
aI-1
aI-1
aI-1
aI-1
aI0
aI-6
aI0
aI2
aI4
aI1
aI1
aI4
aI1
aI0
aI-4
aI1
aI-2
aI-2
aI-15
aI7
aI-4
aI-5
aI-27
aI-5
aI7
aI3
aI0
aI4
aI-3
aI1
aI0
aI-2
aI-3
aI-4
aI-3
aI0
aI-3
aI17
aI3
aI0
aI-1
aI3
aI6
aI-15
aI4
aI18
aI4
aI8
aI8
aI-14
aI6
aI3
aI0
aI2
aI2
aI-7
aI-7
aI4
aI4
aI2
aI-7
aI1
aI2
aI-1
aI-1
aI-1
aI-1
aI-1
aI1
aI3
aI3
aI8
aI1
aI3
aI-4
aI2
aI-8
aI-1
aI1
aI-2
aI2
aI-1
aI-8
aI4
aI-2
aI2
aI-3
aI8
aI-1
aI7
aI0
aI0
aI-2
aI-3
aI-2
aI-1
aI1
aI-4
aI-2
aI0
aI3
aI14
aI1
aI4
aI3
aI0
aI1
aI-6
aI3
aI18
aI4
aI8
aI8
aI-14
aI10
aI3
aI0
aI2
aI2
aI-7
aI-7
aI4
aI4
aI2
aI-7
aI2
aI-1
aI-1
aI-1
aI-1
aI-1
aI-1
aI-6
aI-5
aI1
aI-2
aI3
aI1
aI2
aI-1
aI-7
aI0
aI-1
aI1
aI0
aI-3
aI-10
aI-5
aI-9
aI-2
aI-3
aI7
aI-14
aI-5
aI-3
aI-1
aI-3
aI2
aI-1
aI1
aI-3
aI2
aI-3
aI2
aI6
aI35
aI3
aI5
aI1
aI5
aI7
aI-6
aI2
aI20
aI4
aI8
aI11
aI-14
aI16
aI6
aI10
aI2
aI2
aI-7
aI-7
aI4
aI4
aI2
aI2
aI-10
aI-1
aI1
aI-1
aI-1
aI-1
aI-1
aI10
aI-4
aI1
aI-5
aI2
aI3
aI2
aI-1
aI-6
aI-1
aI0
aI-3
aI1
aI-1
aI4
aI-3
aI-5
aI6
aI-3
aI1
aI-3
aI3
aI-12
aI0
aI1
aI-3
aI-1
aI-1
aI-3
aI-2
aI-2
aI2
aI2
aI23
aI2
aI5
aI6
aI4
aI2
aI-12
aI5
aI18
aI8
aI8
aI8
aI-20
aI19
aI6
aI10
aI2
aI2
aI-7
aI-7
aI4
aI4
aI2
aI2
aI-1
aI-1
aI-1
aI1
aI1
aI-1
aI-1
aI7
aI-2
aI0
aI1
aI-1
aI2
aI1
aI4
aI0
aI1
aI-1
aI0
aI3
aI0
aI0
aI-9
aI-1
aI1
aI4
aI8
aI-6
aI1
aI-8
aI2
aI-1
aI2
aI2
aI3
aI2
aI1
aI2
aI1
aI3
aI11
aI2
aI5
aI4
aI-5
aI1
aI-3
aI7
aI6
aI8
aI8
aI8
aI-25
aI13
aI3
aI7
aI2
aI2
aI2
aI-7
aI4
aI4
aI2
aI2
aI-10
aI-1
aI-1
aI-1
aI-1
aI1
aI-1
aI23
aI-5
aI5
aI1
aI1
aI1
aI-2
aI4
aI1
aI2
aI3
aI0
aI3
aI5
aI6
aI4
aI-1
aI-3
aI1
aI1
aI2
aI5
aI-1
aI-16
aI-2
aI1
aI1
aI2
aI2
aI0
aI2
aI2
aI5
aI13
aI4
aI0
aI1
aI-5
aI3
aI-8
aI5
aI8
aI8
aI8
aI-16
aI8
aI10
aI3
aI7
aI2
aI2
aI2
aI2
aI4
aI4
aI2
aI2
aI-1
aI-10
aI-1
aI-1
aI-1
aI1
aI1
aI21
aI-3
aI3
aI4
aI0
aI1
aI3
aI5
aI4
aI1
aI1
aI0
aI-1
aI6
aI4
aI5
aI-1
aI1
aI-1
aI7
aI-2
aI-2
aI-1
aI-11
aI-4
aI-4
aI0
aI-2
aI-3
aI-1
aI-3
aI2
aI-5
aI0
aI5
aI5
aI5
aI5
aI5
aI0
aI5
aI11
aI11
aI11
aI-13
aI11
aI13
aI-2
aI5
aI2
aI2
aI2
aI2
aI-5
aI4
aI2
aI2
aI-1
aI-1
aI-10
aI-1
aI-1
aI-1
aI-1
aI17
aI4
aI4
aI4
aI2
aI3
aI3
aI5
aI5
aI5
aI0
aI2
aI7
aI8
aI14
aI1
aI-5
aI-2
aI-13
aI4
aI8
aI2
aI-7
aI-13
aI-5
aI-4
aI0
aI1
aI0
aI-4
aI-1
aI-6
aI-1
aI-7
aI5
aI5
aI5
aI5
aI5
aI-2
aI-18
aI11
aI11
aI-13
aI-13
aI16
aI16
aI-2
aI5
aI2
aI2
aI2
aI2
aI-5
aI4
aI4
aI4
aI1
aI1
aI-1
aI1
aI1
aI1
aI1
aI18
aI3
aI4
aI8
aI4
aI4
aI3
aI-2
aI4
aI5
aI2
aI0
aI3
aI9
aI13
aI4
aI-6
aI0
aI-7
aI15
aI1
aI2
aI-6
aI2
aI-4
aI-2
aI-1
aI4
aI-1
aI-4
aI-3
aI-3
aI3
aI-6
aI5
aI8
aI1
aI-19
aI-19
aI-1
aI-20
aI-8
aI-13
aI-13
aI-13
aI-5
aI-5
aI-23
aI-16
aI2
aI2
aI5
aI2
aI4
aI4
aI4
aI4
aI1
aI1
aI1
aI1
aI1
aI1
aI1
aI14
aI1
aI4
aI3
aI3
aI3
aI4
aI-2
aI4
aI2
aI3
aI-1
aI1
aI2
aI8
aI5
aI9
aI3
aI-2
aI9
aI-2
aI0
aI-9
aI-1
aI-5
aI-2
aI-2
aI0
aI-3
aI-2
aI-8
aI-3
aI1
aI2
aI-2
aI-2
aI-28
aI-6
aI4
aI-19
aI-16
aI-9
aI-10
aI-13
aI-10
aI-13
aI-8
aI-23
aI-16
aI4
aI4
aI7
aI4
aI2
aI2
aI2
aI2
aI4
aI2
aI1
aI-1
aI1
aI-1
aI1
aI0
aI2
aI2
aI-3
aI2
aI6
aI3
aI3
aI2
aI1
aI-1
aI0
aI4
aI1
aI8
aI2
aI-5
aI2
aI-7
aI-5
aI12
aI-1
aI-3
aI-1
aI-4
aI-4
aI-3
aI-2
aI-3
aI-4
aI-1
aI-8
aI-5
aI-9
aI5
aI5
aI5
aI-2
aI-2
aI-16
aI-9
aI-13
aI-13
aI-13
aI-13
aI-16
aI-11
aI-26
aI-26
aI4
aI4
aI7
aI4
aI2
aI2
aI2
aI2
aI-1
aI-1
aI-1
aI-1
aI-1
aI-1
aI-1
aI-24
aI-8
aI-2
aI3
aI3
aI2
aI4
aI3
aI2
aI1
aI-2
aI0
aI-1
aI-1
aI8
aI2
aI-6
aI-1
aI-3
aI7
aI6
aI0
aI-1
aI-4
aI-4
aI-4
aI-3
aI-2
aI-3
aI-4
aI1
aI-2
aI-8
aI-7
aI5
aI7
aI7
aI5
aI-19
aI-19
aI-2
aI-13
aI-13
aI-13
aI-9
aI-16
aI-11
aI-26
aI-26
aI1
aI1
aI7
aI4
aI2
aI2
aI2
aI2
aI-1
aI-1
aI-1
aI-1
aI-1
aI-1
aI-1
aI-9
aI-10
aI2
aI1
aI1
aI1
aI1
aI1
aI1
aI2
aI-1
aI-4
aI-1
aI0
aI-1
aI6
aI1
aI-4
aI-5
aI5
aI5
aI2
aI-4
aI-4
aI-5
aI-4
aI-3
aI-9
aI-3
aI-4
aI1
aI-3
aI-1
aI-8
aI5
aI7
aI8
aI5
aI5
aI-20
aI-12
aI11
aI8
aI11
aI15
aI-16
aI-9
aI-26
aI-26
aI0
aI2
aI8
aI10
aI-1
aI-1
aI2
aI-1
aI-1
aI-1
aI-1
aI-1
aI-8
aI-8
aI-8
aI-28
aI-16
aI-15
aI0
aI-6
aI3
aI1
aI-5
aI0
aI-2
aI0
aI-1
aI-3
aI2
aI0
aI-2
aI-5
aI-3
aI-3
aI-11
aI-2
aI-5
aI-3
aI-1
aI-4
aI-4
aI-3
aI-3
aI-4
aI-5
aI-4
aI-3
aI-2
aI-12
aI5
aI17
aI16
aI13
aI12
aI5
aI-11
aI20
aI13
aI10
aI14
aI-14
aI-9
aI-24
aI-27
aI-1
aI3
aI6
aI5
aI0
aI0
aI4
aI6
aI-1
aI3
aI-2
aI-11
aI-3
aI1
aI0
aI-5
aI-8
aI1
aI0
aI-2
aI-10
aI-7
aI-1
aI-3
aI-4
aI-11
aI-5
aI-5
aI-3
aI-2
aI-3
aI-5
aI-2
aI-5
aI-6
aI-2
aI-5
aI-4
aI-5
aI-5
aI-5
aI-4
aI-3
aI-3
aI-3
aI-3
aI-2
aI-14
aI-38
aI7
aI19
aI-6
aI-14
aI-12
aI-9
aI-10
aI-10
aI-16
aI-9
aI-6
aI5
aI5
aI-5
aI-7
aI-1
aI-1
aI6
aI3
aI0
aI-9
aI8
aI8
aI3
aI3
aI0
aI-1
aI2
aI3
aI3
aI6
aI-3
aI-3
aI3
aI-1
aI-8
aI2
aI-4
aI-3
aI-3
aI-4
aI-5
aI-2
aI0
aI-2
aI-3
aI-1
aI0
aI-5
aI-3
aI-5
aI-5
aI-5
aI-5
aI-3
aI-5
aI-4
aI-3
aI-4
aI-5
aI-10
aI-10
aI-3
aI-25
aI-6
aI-4
aI-5
aI-6
aI-6
aI-1
aI-1
aI2
aI2
aI3
aI6
aI8
aI7
aI0
aI-3
aI2
aI2
aI3
aI3
aI-4
aI-13
aI4
aI4
aI4
aI2
aI-6
aI-1
aI1
aI-1
aI-1
aI-8
aI-1
aI0
aI2
aI-1
aI-6
aI3
aI-3
aI-3
aI-5
aI-9
aI-2
aI-2
aI-1
aI0
aI-1
aI2
aI2
aI-14
aI-1
aI-5
aI-5
aI-5
aI-3
aI-5
aI-5
aI-4
aI-3
aI-4
aI-5
aI-3
aI-14
aI-8
aI-19
aI-3
aI-5
aI-4
aI-5
aI-8
aI-3
aI-1
aI2
aI2
aI3
aI6
aI8
aI8
aI0
aI0
aI2
aI2
aI6
aI3
aI-11
aI-13
aI4
aI7
aI1
aI6
aI1
aI-1
aI-2
aI-1
aI-2
aI-5
aI2
aI-1
aI2
aI2
aI-4
aI6
aI1
aI-1
aI-5
aI-4
aI-9
aI-3
aI-12
aI-9
aI-2
aI-3
aI0
aI-1
aI4
aI2
aI-14
aI-3
aI-5
aI-5
aI-5
aI-4
aI-3
aI-3
aI-4
aI-3
aI-11
aI-9
aI-15
aI-5
aI-6
aI-8
aI-6
aI-5
aI0
aI2
aI2
aI2
aI3
aI6
aI12
aI3
aI0
aI3
aI2
aI5
aI3
aI-2
aI-11
aI-6
aI7
aI7
aI-3
aI3
aI1
aI-2
aI-1
aI-1
aI-1
aI27
aI1
aI1
aI6
aI7
aI4
aI1
aI-1
aI1
aI3
aI-2
aI-3
aI-8
aI-3
aI-28
aI-9
aI-10
aI0
aI0
aI-18
aI-4
aI-5
aI-5
aI-5
aI-5
aI-5
aI-4
aI-2
aI-3
aI-1
aI0
aI-3
aI-2
aI-4
aI-8
aI-6
aI-6
aI-3
aI-5
aI3
aI-2
aI2
aI2
aI0
aI3
aI9
aI-3
aI3
aI0
aI-5
aI-5
aI-4
aI5
aI-4
aI-6
aI4
aI4
aI-4
aI4
aI1
aI0
aI-1
aI2
aI3
aI25
aI2
aI4
aI9
aI3
aI3
aI2
aI0
aI4
aI0
aI3
aI-1
aI-3
aI-3
aI-3
aI0
aI-23
aI-12
aI0
aI2
aI-1
aI-3
aI-5
aI-2
aI-5
aI-4
aI-4
aI-2
aI3
aI-2
aI-3
aI-3
aI-2
aI-13
aI-8
aI-8
aI-3
aI-5
aI-3
aI4
aI-4
aI3
aI2
aI0
aI9
aI12
aI3
aI0
aI0
aI6
aI6
aI7
aI9
aI-4
aI-6
aI6
aI6
aI-5
aI6
aI3
aI5
aI4
aI2
aI3
aI37
aI6
aI6
aI10
aI2
aI0
aI0
aI1
aI3
aI1
aI4
aI6
aI-3
aI1
aI0
aI-9
aI-13
aI-3
aI-5
aI-1
aI1
aI-2
aI-8
aI-5
aI-5
aI-5
aI-1
aI2
aI2
aI-2
aI-3
aI-3
aI-3
aI-3
aI-3
aI-5
aI-5
aI-3
aI1
aI-4
aI-3
aI4
aI4
aI6
aI3
aI8
aI3
aI-3
aI-3
aI6
aI6
aI7
aI9
aI-4
aI-6
aI6
aI6
aI-1
aI2
aI2
aI3
aI2
aI3
aI2
aI29
aI4
aI2
aI6
aI6
aI2
aI2
aI3
aI7
aI10
aI7
aI6
aI3
aI-7
aI-6
aI-1
aI-22
aI-4
aI-14
aI0
aI-3
aI-5
aI-5
aI-3
aI-5
aI-4
aI2
aI1
aI-1
aI-2
aI-2
aI-4
aI-6
aI-6
aI-5
aI-5
aI-8
aI-5
aI-1
aI-10
aI-2
aI4
aI7
aI0
aI2
aI6
aI3
aI-3
aI-3
aI6
aI6
aI-2
aI0
aI-4
aI-6
aI-1
aI-5
aI-3
aI20
aI11
aI0
aI1
aI2
aI12
aI33
aI3
aI2
aI5
aI7
aI11
aI5
aI19
aI8
aI13
aI12
aI5
aI10
aI-6
aI11
aI-3
aI-13
aI-3
aI-2
aI-3
aI5
aI-3
aI-3
aI-3
aI-4
aI-2
aI2
aI2
aI2
aI0
aI-2
aI2
aI-2
aI1
aI-5
aI-5
aI-2
aI0
aI-3
aI-9
aI0
aI4
aI4
aI0
aI2
aI3
aI0
aI-3
aI-3
aI6
aI6
aI-2
aI0
aI-4
aI-6
aI-1
aI-1
aI-8
aI5
aI12
aI12
aI3
aI0
aI0
aI27
aI-6
aI2
aI7
aI1
aI3
aI3
aI6
aI7
aI12
aI21
aI9
aI2
aI9
aI-13
aI-4
aI4
aI-11
aI-8
aI1
aI10
aI-3
aI-3
aI-5
aI-4
aI-2
aI1
aI-1
aI1
aI-2
aI-4
aI-4
aI0
aI0
aI-2
aI-2
aI-1
aI-5
aI-5
aI-7
aI0
aI4
aI4
aI2
aI5
aI3
aI0
aI0
aI-3
aI-1
aI-1
aI-9
aI0
aI-4
aI-6
aI-1
aI-1
aI-8
aI-4
aI9
aI13
aI14
aI-1
aI1
aI28
aI-1
aI1
aI5
aI1
aI6
aI9
aI9
aI8
aI9
aI11
aI4
aI3
aI4
aI12
aI-10
aI1
aI-3
aI-13
aI-5
aI10
aI-4
aI-3
aI-5
aI-2
aI-2
aI-1
aI1
aI-1
aI-1
aI0
aI-4
aI-4
aI5
aI-5
aI-5
aI-3
aI-3
aI-1
aI0
aI1
aI7
aI6
aI5
aI8
aI8
aI5
aI-1
aI2
aI6
aI9
aI-2
aI-11
aI-11
aI-6
aI2
aI11
aI-3
aI-11
aI11
aI14
aI1
aI1
aI0
aI14
aI3
aI4
aI4
aI3
aI9
aI9
aI4
aI3
aI8
aI6
aI1
aI-2
aI14
aI4
aI-1
aI6
aI-3
aI-2
aI-6
aI-1
aI-5
aI-3
aI-2
aI-2
aI-1
aI-1
aI-1
aI-3
aI0
aI-4
aI-4
aI-4
aI24
aI-1
aI-3
aI-3
aI-1
aI2
aI-8
aI-7
aI6
aI6
aI5
aI5
aI-3
aI2
aI-1
aI-1
aI6
aI6
aI1
aI-6
aI-11
aI-9
aI7
aI11
aI13
aI-1
aI11
aI0
aI2
aI12
aI9
aI1
aI4
aI4
aI7
aI5
aI4
aI4
aI7
aI-2
aI10
aI8
aI16
aI13
aI15
aI5
aI3
aI5
aI-3
aI-3
aI1
aI-2
aI-12
aI-4
aI0
aI-3
aI-2
aI-2
aI-3
aI-3
aI0
aI-4
aI-3
aI2
aI29
aI0
aI-2
aI0
aI3
aI6
aI5
aI3
aI6
aI6
aI9
aI9
aI9
aI6
aI3
aI3
aI6
aI6
aI-2
aI-6
aI-4
aI-9
aI7
aI8
aI17
aI14
aI-6
aI-2
aI3
aI13
aI11
aI7
aI-1
aI1
aI-4
aI2
aI6
aI7
aI4
aI-2
aI7
aI5
aI15
aI8
aI3
aI2
aI-11
aI7
aI-5
aI0
aI-5
aI4
aI-4
aI-4
aI-4
aI-3
aI-3
aI0
aI-3
aI-4
aI-1
aI-3
aI-2
aI-3
aI14
aI-2
aI0
aI-1
aI-6
aI4
aI1
aI1
aI6
aI6
aI6
aI9
aI5
aI2
aI-1
aI-1
aI3
aI3
aI1
aI-6
aI-4
aI-9
aI7
aI8
aI17
aI14
aI5
aI-1
aI2
aI13
aI10
aI6
aI3
aI2
aI-3
aI-1
aI1
aI2
aI7
aI2
aI4
aI2
aI9
aI2
aI6
aI-4
aI-11
aI2
aI-4
aI0
aI-15
aI-3
aI-4
aI-5
aI-5
aI-5
aI-3
aI-2
aI-1
aI-2
aI0
aI-3
aI-3
aI2
aI5
aI-2
aI-4
aI-5
aI0
aI0
aI-1
aI-5
aI4
aI4
aI0
aI3
aI5
aI2
aI-1
aI-1
aI-7
aI-4
aI1
aI-4
aI-4
aI-11
aI1
aI3
aI0
aI12
aI9
aI8
aI-3
aI-4
aI8
aI4
aI-2
aI-2
aI-2
aI2
aI2
aI2
aI-2
aI-1
aI2
aI2
aI12
aI0
aI-1
aI-16
aI-4
aI-4
aI-8
aI3
aI-9
aI-4
aI-3
aI-5
aI-4
aI-4
aI0
aI-4
aI-3
aI-4
aI-2
aI-4
aI-3
aI-3
aI4
aI-1
aI-4
aI-1
aI-3
aI-3
aI-6
aI-4
aI3
aI7
aI3
aI3
aI5
aI1
aI-2
aI-4
aI3
aI5
aI4
aI5
aI-6
aI-11
aI-12
aI-5
aI7
aI8
aI3
aI4
aI-1
aI2
aI-1
aI-7
aI-13
aI1
aI4
aI-3
aI4
aI4
aI4
aI0
aI6
aI1
aI2
aI2
aI-1
aI-2
aI2
aI-14
aI-18
aI-4
aI-2
aI-3
aI-2
aI-1
aI-3
aI-4
aI-4
aI-3
aI-4
aI0
aI4
aI-2
aI-4
aI-1
aI23
aI-1
aI0
aI-3
aI0
aI7
aI2
aI-1
aI3
aI3
aI0
aI0
aI-3
aI-7
aI5
aI-1
aI7
aI7
aI7
aI14
aI-3
aI-9
aI-9
aI-2
aI7
aI9
aI7
aI7
aI7
aI7
aI7
aI-1
aI3
aI-1
aI3
aI3
aI-11
aI5
aI1
aI10
aI5
aI3
aI-3
aI3
aI1
aI-4
aI-6
aI-10
aI-5
aI-2
aI-4
aI2
aI-3
aI-3
aI1
aI-4
aI2
aI1
aI3
aI5
aI3
aI4
aI2
aI6
aI11
aI1
aI3
aI1
aI4
aI3
aI4
aI-7
aI-2
aI7
aI4
aI4
aI4
aI4
aI4
aI4
aI7
aI7
aI7
aI14
aI-3
aI-9
aI-9
aI-2
aI-2
aI2
aI7
aI7
aI7
aI7
aI7
aI4
aI-5
aI0
aI-3
aI-4
aI-8
aI5
aI5
aI4
aI4
aI4
aI-5
aI-6
aI-1
aI-6
aI-4
aI-4
aI-5
aI-3
aI1
aI-2
aI0
aI0
aI-3
aI1
aI1
aI1
aI6
aI10
aI7
aI4
aI10
aI7
aI4
aI4
aI3
aI3
aI4
aI3
aI-4
aI-7
aI-2
aI7
aI4
aI4
aI4
aI4
aI4
aI4
aI7
aI7
aI7
aI14
aI-3
aI-8
aI-9
aI-2
aI10
aI2
aI7
aI7
aI7
aI7
aI7
aI10
aI9
aI-3
aI-1
aI-3
aI-1
aI-3
aI5
aI5
aI1
aI3
aI2
aI5
aI3
aI-5
aI-4
aI-12
aI-4
aI-3
aI0
aI0
aI-4
aI-4
aI0
aI0
aI1
aI5
aI0
aI1
aI6
aI6
aI4
aI9
aI24
aI4
aI4
aI1
aI3
aI1
aI-6
aI6
aI-2
aI7
aI4
aI4
aI4
aI4
aI4
aI4
aI7
aI7
aI-2
aI5
aI-3
aI-3
aI-9
aI-2
aI7
aI-2
aI7
aI7
aI7
aI7
aI7
aI8
aI10
aI2
aI7
aI-11
aI-3
aI1
aI-5
aI2
aI1
aI-1
aI1
aI1
aI2
aI0
aI-2
aI-8
aI0
aI-4
aI1
aI0
aI0
aI2
aI-4
aI-4
aI6
aI-6
aI-17
aI1
aI-4
aI-4
aI6
aI-1
aI24
aI1
aI4
aI1
aI3
aI4
aI3
aI-5
aI-2
aI7
aI4
aI4
aI4
aI4
aI4
aI4
aI7
aI-2
aI-2
aI-2
aI-1
aI-5
aI-9
aI-9
aI1
aI-2
aI7
aI7
aI7
aI7
aI7
aI7
aI-2
aI1
aI4
aI-10
aI4
aI-1
aI3
aI-2
aI1
aI-1
aI-1
aI-1
aI-1
aI-1
aI2
aI-5
aI-5
aI0
aI1
aI-4
aI-4
aI0
aI3
aI-10
aI-7
aI-3
aI9
aI-7
aI2
aI-9
aI3
aI-11
aI20
aI1
aI4
aI3
aI3
aI-3
aI-3
aI-7
aI-2
aI7
aI4
aI4
aI4
aI4
aI4
aI4
aI-2
aI-2
aI-8
aI-8
aI-1
aI-5
aI-9
aI-9
aI1
aI9
aI-2
aI-2
aI7
aI7
aI7
aI-14
aI2
aI-7
aI8
aI-6
aI9
aI-6
aI6
aI-23
aI-5
aI-1
aI-1
aI2
aI-1
aI2
aI-1
aI-5
aI-5
aI0
aI-2
aI-2
aI2
aI0
aI-10
aI-1
aI-11
aI0
aI-12
aI15
aI13
aI3
aI4
aI-6
aI2
aI4
aI1
aI1
aI6
aI-5
aI-5
aI-5
aI-2
aI7
aI4
aI4
aI4
aI4
aI4
aI4
aI-2
aI-2
aI-8
aI-8
aI-1
aI-5
aI-9
aI-6
aI-6
aI7
aI-2
aI-2
aI7
aI7
aI-2
aI-27
aI-8
aI8
aI-4
aI-7
aI0
aI0
aI-16
aI3
aI-8
aI9
aI-1
aI7
aI5
aI2
aI6
aI-2
aI5
aI10
aI7
aI12
aI15
aI10
aI-6
aI-31
aI-18
aI-18
aI23
aI11
aI-5
aI5
aI-6
aI-11
aI-19
aI4
aI1
aI6
aI-5
aI-6
aI3
aI-2
aI-2
aI-2
aI4
aI4
aI4
aI4
aI4
aI4
aI-8
aI-8
aI-8
aI-8
aI-1
aI-5
aI-6
aI-4
aI-2
aI-2
aI-9
aI-2
aI-2
aI-2
aI-2
aI-24
aI-19
aI8
aI-28
aI-28
aI-38
aI-25
aI-31
aI-20
aI-8
aI-18
aI15
aI19
aI9
aI5
aI13
aI12
aI3
aI7
aI6
aI5
aI9
aI0
aI-26
aI-39
aI-44
aI-23
aI7
aI-10
aI-13
aI-1
aI6
aI-9
aI-23
aI-5
aI-3
aI-3
aI-3
aI-3
aI0
aI0
aI-2
aI-2
aI4
aI4
aI4
aI5
aI5
aI5
aI1
aI1
aI-8
aI-8
aI-1
aI-1
aI-6
aI-4
aI-2
aI-2
aI-9
aI-9
aI-9
aI-2
aI-9
aI-25
aI5
aI9
aI-5
aI-11
aI-40
aI-27
aI-29
aI-26
aI-9
aI-26
aI11
aI9
aI1
aI3
aI4
aI1
aI-6
aI9
aI5
aI12
aI4
aI-8
aI-26
aI-26
aI-29
aI-12
aI-3
aI-5
aI3
aI10
aI15
aI12
aI-31
aI-5
aI-3
aI-3
aI-3
aI-3
aI0
aI0
aI-2
aI-2
aI4
aI4
aI4
aI4
aI5
aI5
aI8
aI8
aI10
aI8
aI8
aI8
aI-1
aI-1
aI-1
aI-1
aI-1
aI-1
aI-1
aI-9
aI0
aI-29
aI-13
aI-16
aI-23
aI-16
aI-29
aI-24
aI-13
aI-13
aI-10
aI5
aI17
aI12
aI13
aI9
aI15
aI14
aI-13
aI-22
aI-16
aI-12
aI-16
aI-12
aI-26
aI-22
aI-9
aI-5
aI-5
aI-5
aI15
aI-2
aI6
aI1
aI-10
aI-5
aI-3
aI-3
aI-3
aI-3
aI0
aI0
aI0
aI0
aI-5
aI-5
aI-5
aI-5
aI-5
aI-5
aI8
aI8
aI10
aI8
aI8
aI8
aI-1
aI-1
aI-1
aI-1
aI-1
aI-1
aI-1
aI1
aI8
aI-12
aI-3
aI-9
aI-8
aI-13
aI-34
aI-19
aI-9
aI-7
aI-5
aI-12
aI20
aI16
aI8
aI11
aI25
aI-16
aI-12
aI-9
aI-20
aI-21
aI-3
aI-18
aI-19
aI-17
aI-11
aI-5
aI-2
aI-13
aI11
aI23
aI15
aI-1
aI-6
aI-5
aI-3
aI-3
aI-3
aI-3
aI0
aI0
aI0
aI0
aI-5
aI-5
aI-5
aI-5
aI-5
aI-5
aI7
aI7
aI8
aI8
aI8
aI8
aI-1
aI-1
aI-1
aI-1
aI5
aI5
aI10
aI10
aI10
aI5
aI8
aI-10
aI-14
aI-20
aI-40
aI-22
aI-10
aI-3
aI-2
aI-8
aI-12
aI-22
aI-22
aI1
aI-11
aI-21
aI3
aI21
aI33
aI7
aI-12
aI-24
aI-28
aI-18
aI-25
aI-13
aI0
aI-2
aI31
aI20
aI13
aI13
aI1
aI4
aI6
aI6
aI-3
aI-3
aI0
aI0
aI0
aI0
aI-5
aI-5
aI-5
aI-5
aI-5
aI-5
aI7
aI7
aI8
aI8
aI8
aI8
aI-1
aI-1
aI-1
aI-1
aI5
aI1
aI10
aI10
aI12
aI1
aI-2
aI-5
aI-16
aI-16
aI-38
aI-24
aI1
aI1
aI5
aI1
aI-20
aI1
aI0
aI5
aI12
aI9
aI6
aI25
aI34
aI34
aI-10
aI-12
aI-27
aI-24
aI-27
aI-29
aI0
aI-14
aI27
aI17
aI8
aI10
aI3
aI4
aI6
aI6
aI-3
aI-3
aI0
aI0
aI0
aI0
aI-5
aI-5
aI-5
aI-5
aI-5
aI-5
aI7
aI7
aI8
aI8
aI1
aI1
aI1
aI-8
aI5
aI5
aI1
aI1
aI7
aI7
aI7
aI-16
aI17
aI19
aI2
aI5
aI-3
aI11
aI-8
aI-1
aI19
aI10
aI22
aI22
aI17
aI13
aI14
aI20
aI6
aI6
aI18
aI25
aI1
aI7
aI-20
aI-15
aI-32
aI-17
aI23
aI15
aI19
aI15
aI12
aI17
aI4
aI4
aI7
aI6
aI6
aI6
aI0
aI0
aI0
aI0
aI-5
aI-5
aI-5
aI-5
aI-5
aI-5
aI7
aI7
aI8
aI8
aI1
aI1
aI1
aI1
aI5
aI5
aI1
aI1
aI7
aI7
aI7
aI-1
aI14
aI18
aI2
aI1
aI-3
aI8
aI-8
aI-10
aI10
aI10
aI22
aI22
aI14
aI13
aI21
aI21
aI5
aI12
aI22
aI25
aI7
aI7
aI-17
aI-20
aI-38
aI-22
aI23
aI8
aI10
aI15
aI10
aI13
aI4
aI4
aI6
aI6
aI6
aI6
aI0
aI0
aI0
aI0
aI-5
aI-5
aI-5
aI-5
aI-5
aI-5
asbag0
(g8
g2
Ntp48
Rp49
(dp50
g12
I50
sg13
I4096
sg14
(lp51
I0
aI0
aI0
aI0
aI0
aI0
aI1
aI1
aI1
aI1
aI0
aI0
aI0
aI0
aI0
aI-4
aI-3
aI-2
aI-1
aI2
aI2
aI1
aI-4
aI-2
aI0
aI-3
aI-5
aI-5
aI-2
aI1
aI-4
aI-6
aI-9
aI-1
aI4
aI-2
aI4
aI-2
aI-13
aI-9
aI-7
aI-7
aI3
aI-7
aI-7
aI-1
aI1
aI1
aI3
aI1
aI1
aI1
aI1
aI1
aI3
aI3
aI3
aI3
aI1
aI1
aI2
aI1
aI-4
aI-4
aI0
aI0
aI0
aI0
aI0
aI0
aI1
aI1
aI1
aI1
aI0
aI0
aI0
aI0
aI0
aI7
aI-2
aI-2
aI-1
aI2
aI2
aI-4
aI-4
aI1
aI-7
aI-12
aI-7
aI-3
aI0
aI1
aI-2
aI-4
aI-5
aI-1
aI-2
aI-2
aI8
aI-2
aI-9
aI-9
aI-7
aI-7
aI3
aI-7
aI-6
aI-1
aI2
aI1
aI1
aI1
aI2
aI1
aI1
aI1
aI3
aI3
aI3
aI3
aI1
aI1
aI2
aI1
aI-4
aI-4
aI0
aI0
aI0
aI0
aI0
aI0
aI1
aI1
aI1
aI1
aI0
aI0
aI0
aI0
aI0
aI2
aI3
aI4
aI4
aI11
aI6
aI-2
aI-6
aI-6
aI-3
aI-6
aI2
aI4
aI-2
aI-5
aI-7
aI-3
aI-13
aI0
aI-4
aI-11
aI1
aI4
aI-11
aI-16
aI-9
aI-9
aI3
aI-5
aI-9
aI-3
aI-2
aI1
aI4
aI1
aI1
aI1
aI3
aI3
aI3
aI3
aI3
aI3
aI3
aI1
aI2
aI1
aI1
aI1
aI0
aI0
aI0
aI0
aI0
aI0
aI1
aI1
aI1
aI1
aI0
aI0
aI0
aI0
aI0
aI8
aI-3
aI8
aI8
aI10
aI-5
aI0
aI-6
aI-6
aI-4
aI-4
aI9
aI-4
aI-1
aI1
aI4
aI4
aI-11
aI-4
aI-8
aI-6
aI-7
aI-1
aI0
aI-4
aI-9
aI-6
aI0
aI0
aI-9
aI-7
aI-4
aI-8
aI-6
aI1
aI1
aI1
aI3
aI3
aI3
aI3
aI3
aI3
aI3
aI3
aI2
aI1
aI1
aI1
aI0
aI0
aI0
aI0
aI0
aI0
aI1
aI1
aI1
aI1
aI0
aI0
aI0
aI0
aI0
aI13
aI0
aI1
aI0
aI11
aI-4
aI7
aI1
aI-1
aI-14
aI7
aI2
aI-3
aI-1
aI6
aI4
aI4
aI-3
aI0
aI-5
aI-5
aI-13
aI3
aI1
aI-4
aI1
aI5
aI-5
aI-12
aI-10
aI-5
aI-5
aI-16
aI-3
aI1
aI1
aI2
aI1
aI1
aI3
aI3
aI3
aI3
aI3
aI3
aI4
aI3
aI3
aI3
aI0
aI0
aI0
aI0
aI0
aI0
aI1
aI1
aI1
aI1
aI0
aI0
aI0
aI0
aI0
aI5
aI2
aI3
aI7
aI-1
aI3
aI6
aI8
aI6
aI10
aI10
aI3
aI-9
aI-1
aI2
aI2
aI2
aI6
aI2
aI4
aI-5
aI-8
aI-4
aI-11
aI8
aI9
aI7
aI-12
aI-15
aI-9
aI3
aI14
aI1
aI-13
aI1
aI-4
aI2
aI1
aI1
aI3
aI3
aI3
aI3
aI3
aI3
aI4
aI1
aI1
aI1
aI0
aI0
aI0
aI0
aI0
aI0
aI1
aI1
aI1
aI1
aI0
aI0
aI0
aI0
aI0
aI11
aI1
aI2
aI2
aI5
aI3
aI4
aI9
aI7
aI2
aI3
aI-4
aI0
aI3
aI6
aI3
aI9
aI-2
aI0
aI6
aI3
aI6
aI-4
aI13
aI7
aI4
aI1
aI-3
aI-9
aI-3
aI6
aI4
aI1
aI-7
aI-4
aI-4
aI-4
aI-4
aI-4
aI-4
aI-4
aI3
aI3
aI2
aI1
aI2
aI1
aI1
aI1
aI0
aI0
aI0
aI0
aI0
aI0
aI1
aI1
aI1
aI1
aI0
aI0
aI0
aI0
aI0
aI9
aI4
aI1
aI1
aI5
aI3
aI-3
aI6
aI7
aI2
aI2
aI-4
aI-5
aI2
aI2
aI2
aI5
aI0
aI-1
aI6
aI8
aI4
aI3
aI4
aI-4
aI5
aI1
aI-6
aI-6
aI2
aI4
aI7
aI5
aI0
aI-4
aI-4
aI-4
aI-4
aI-4
aI-4
aI-4
aI-2
aI3
aI1
aI1
aI2
aI1
aI1
aI1
aI0
aI0
aI0
aI0
aI0
aI0
aI1
aI1
aI0
aI5
aI4
aI0
aI0
aI4
aI0
aI14
aI5
aI0
aI12
aI3
aI-8
aI14
aI16
aI14
aI14
aI-3
aI-13
aI-7
aI6
aI4
aI-1
aI-1
aI-3
aI-2
aI-2
aI-15
aI-18
aI-7
aI22
aI14
aI2
aI-1
aI-7
aI-2
aI5
aI17
aI11
aI5
aI-3
aI-2
aI1
aI-3
aI-5
aI1
aI-8
aI1
aI-4
aI-2
aI1
aI1
aI2
aI1
aI1
aI1
aI0
aI0
aI0
aI0
aI0
aI0
aI1
aI1
aI4
aI5
aI0
aI0
aI0
aI4
aI4
aI8
aI0
aI9
aI14
aI11
aI12
aI-4
aI-5
aI0
aI-12
aI11
aI15
aI2
aI-13
aI-6
aI10
aI14
aI-2
aI-7
aI3
aI9
aI4
aI6
aI-11
aI-15
aI7
aI-3
aI8
aI-5
aI10
aI6
aI13
aI9
aI-2
aI-3
aI-2
aI-2
aI-2
aI1
aI-8
aI-3
aI-4
aI-4
aI1
aI1
aI3
aI1
aI1
aI1
aI0
aI0
aI0
aI0
aI0
aI0
aI1
aI1
aI5
aI1
aI0
aI4
aI4
aI0
aI0
aI13
aI5
aI-1
aI-5
aI-10
aI7
aI4
aI8
aI4
aI1
aI-8
aI-11
aI10
aI4
aI-1
aI3
aI3
aI10
aI-6
aI-11
aI-8
aI6
aI12
aI6
aI0
aI16
aI22
aI14
aI5
aI8
aI9
aI12
aI0
aI3
aI-3
aI1
aI-2
aI-3
aI1
aI-5
aI-3
aI-4
aI-4
aI1
aI1
aI3
aI1
aI1
aI1
aI0
aI0
aI0
aI0
aI0
aI0
aI1
aI1
aI0
aI1
aI4
aI4
aI0
aI0
aI4
aI-1
aI7
aI-6
aI-5
aI2
aI3
aI4
aI0
aI-5
aI6
aI4
aI6
aI6
aI5
aI-12
aI-6
aI-5
aI-14
aI-11
aI-4
aI12
aI-7
aI-11
aI-13
aI0
aI3
aI-3
aI2
aI8
aI6
aI-4
aI0
aI-2
aI3
aI-2
aI1
aI0
aI-3
aI-2
aI1
aI0
aI-4
aI-4
aI1
aI1
aI2
aI2
aI1
aI1
aI0
aI0
aI0
aI0
aI0
aI0
aI1
aI1
aI0
aI5
aI4
aI0
aI0
aI4
aI4
aI-2
aI-11
aI2
aI9
aI-1
aI-2
aI-2
aI-1
aI8
aI-1
aI5
aI-2
aI-6
aI3
aI6
aI1
aI-9
aI8
aI1
aI4
aI5
aI1
aI2
aI3
aI1
aI-5
aI-2
aI5
aI-3
aI-7
aI4
aI-13
aI6
aI1
aI-3
aI-3
aI1
aI1
aI-2
aI1
aI-5
aI-4
aI-3
aI1
aI1
aI2
aI2
aI1
aI1
aI0
aI0
aI0
aI0
aI0
aI0
aI1
aI1
aI0
aI5
aI0
aI0
aI4
aI4
aI0
aI-8
aI4
aI1
aI-2
aI-5
aI-1
aI-1
aI-1
aI-2
aI1
aI3
aI-8
aI-8
aI2
aI4
aI-2
aI1
aI4
aI2
aI1
aI-14
aI-3
aI2
aI0
aI2
aI6
aI4
aI-8
aI-7
aI5
aI13
aI0
aI-10
aI4
aI1
aI-3
aI-3
aI1
aI0
aI-3
aI-2
aI-4
aI-3
aI-4
aI1
aI2
aI2
aI1
aI1
aI0
aI0
aI0
aI0
aI0
aI0
aI1
aI1
aI0
aI5
aI0
aI0
aI4
aI0
aI0
aI-8
aI4
aI-3
aI-5
aI7
aI3
aI-2
aI2
aI7
aI6
aI5
aI5
aI8
aI14
aI5
aI5
aI6
aI4
aI-1
aI0
aI7
aI7
aI7
aI10
aI5
aI5
aI10
aI0
aI0
aI10
aI7
aI4
aI-3
aI4
aI1
aI0
aI-3
aI1
aI-3
aI-3
aI-2
aI-4
aI-3
aI-4
aI1
aI2
aI2
aI1
aI1
aI0
aI0
aI0
aI0
aI0
aI0
aI1
aI1
aI0
aI5
aI4
aI0
aI0
aI0
aI0
aI10
aI25
aI17
aI5
aI-1
aI11
aI10
aI7
aI3
aI-7
aI9
aI6
aI1
aI-1
aI-6
aI0
aI-1
aI-1
aI4
aI1
aI0
aI-4
aI5
aI4
aI7
aI-4
aI0
aI2
aI2
aI-3
aI9
aI7
aI-10
aI4
aI-7
aI-7
aI-11
aI-9
aI-6
aI-2
aI3
aI-6
aI-5
aI-2
aI-2
aI5
aI-3
aI-5
aI-3
aI1
aI1
aI-3
aI-3
aI-3
aI-3
aI-3
aI-3
aI0
aI1
aI0
aI1
aI1
aI0
aI1
aI24
aI0
aI4
aI2
aI0
aI0
aI-1
aI2
aI3
aI3
aI0
aI-1
aI0
aI-2
aI-2
aI-1
aI-2
aI2
aI-2
aI-5
aI-7
aI-12
aI-7
aI-3
aI-1
aI0
aI5
aI0
aI2
aI1
aI0
aI-1
aI-1
aI-5
aI-1
aI-7
aI-7
aI3
aI2
aI4
aI1
aI5
aI0
aI7
aI7
aI4
aI4
aI1
aI-2
aI1
aI1
aI-3
aI-3
aI-3
aI-3
aI-3
aI-3
aI1
aI1
aI1
aI1
aI0
aI0
aI1
aI16
aI-1
aI9
aI1
aI1
aI0
aI-1
aI0
aI3
aI-2
aI-2
aI-1
aI-3
aI-2
aI-5
aI-10
aI-2
aI-7
aI-2
aI-15
aI-6
aI-12
aI-1
aI-1
aI-1
aI0
aI0
aI1
aI1
aI-1
aI1
aI-2
aI-1
aI3
aI2
aI1
aI-6
aI2
aI1
aI3
aI3
aI5
aI6
aI7
aI7
aI4
aI0
aI0
aI1
aI5
aI5
aI-3
aI-3
aI-3
aI-3
aI-3
aI-3
aI0
aI0
aI0
aI1
aI1
aI1
aI1
aI24
aI-1
aI8
aI1
aI0
aI5
aI3
aI6
aI3
aI-2
aI-2
aI-2
aI-2
aI-2
aI-6
aI-9
aI2
aI-19
aI-7
aI-7
aI-7
aI-5
aI0
aI0
aI1
aI-7
aI-3
aI2
aI3
aI-1
aI1
aI-2
aI-2
aI6
aI2
aI0
aI0
aI2
aI-10
aI3
aI3
aI-1
aI10
aI7
aI7
aI4
aI0
aI-4
aI1
aI5
aI5
aI-3
aI-3
aI-3
aI-3
aI-3
aI-3
aI1
aI4
aI0
aI1
aI1
aI0
aI1
aI27
aI-1
aI6
aI3
aI0
aI4
aI3
aI4
aI4
aI-1
aI-1
aI-2
aI2
aI0
aI-7
aI-7
aI-8
aI-11
aI-2
aI2
aI-3
aI-9
aI0
aI4
aI1
aI2
aI0
aI2
aI3
aI1
aI2
aI0
aI-1
aI5
aI1
aI1
aI1
aI1
aI1
aI4
aI2
aI-1
aI10
aI7
aI7
aI4
aI8
aI-6
aI-1
aI5
aI5
aI-3
aI-3
aI-3
aI-3
aI-3
aI-3
aI5
aI0
aI1
aI1
aI0
aI0
aI1
aI26
aI0
aI0
aI5
aI7
aI4
aI5
aI0
aI0
aI-2
aI-2
aI-1
aI-5
aI-2
aI-6
aI-12
aI-2
aI-1
aI-1
aI-18
aI-4
aI-1
aI1
aI2
aI1
aI-4
aI0
aI2
aI1
aI-1
aI3
aI-2
aI-4
aI1
aI1
aI6
aI0
aI1
aI2
aI5
aI-6
aI3
aI10
aI7
aI7
aI5
aI6
aI-12
aI-8
aI5
aI5
aI-3
aI-3
aI-3
aI-3
aI-3
aI-3
aI0
aI0
aI1
aI0
aI1
aI1
aI0
aI17
aI-1
aI1
aI7
aI0
aI3
aI5
aI0
aI0
aI1
aI-2
aI-1
aI-6
aI0
aI0
aI3
aI-10
aI2
aI5
aI-5
aI-13
aI-5
aI1
aI1
aI1
aI0
aI0
aI4
aI3
aI-1
aI3
aI-2
aI-2
aI3
aI0
aI1
aI-4
aI1
aI0
aI6
aI-4
aI3
aI7
aI7
aI7
aI5
aI6
aI-12
aI-8
aI5
aI5
aI-3
aI-3
aI-3
aI-3
aI-3
aI-3
aI1
aI1
aI1
aI0
aI1
aI1
aI0
aI11
aI0
aI1
aI8
aI5
aI4
aI1
aI-4
aI1
aI4
aI1
aI1
aI-5
aI0
aI5
aI1
aI-3
aI-2
aI8
aI-15
aI-5
aI-3
aI2
aI-3
aI1
aI-1
aI4
aI2
aI2
aI0
aI2
aI-1
aI-1
aI-3
aI0
aI3
aI6
aI2
aI0
aI4
aI-1
aI9
aI8
aI8
aI8
aI10
aI7
aI-5
aI-1
aI5
aI5
aI-3
aI-3
aI-3
aI-3
aI-3
aI-3
aI0
aI0
aI1
aI0
aI0
aI0
aI1
aI11
aI-1
aI-6
aI5
aI8
aI2
aI-1
aI-4
aI1
aI0
aI-1
aI0
aI-4
aI-3
aI-6
aI-4
aI-5
aI-1
aI-10
aI5
aI-3
aI-11
aI2
aI2
aI1
aI3
aI3
aI2
aI2
aI2
aI4
aI1
aI-2
aI0
aI1
aI1
aI1
aI3
aI6
aI5
aI1
aI5
aI8
aI8
aI8
aI10
aI3
aI-4
aI0
aI5
aI5
aI-3
aI-3
aI-3
aI-3
aI-3
aI-3
aI1
aI1
aI1
aI1
aI1
aI1
aI1
aI10
aI-1
aI4
aI10
aI4
aI5
aI4
aI3
aI0
aI5
aI0
aI1
aI2
aI-4
aI2
aI-5
aI3
aI-8
aI1
aI-1
aI-5
aI-7
aI0
aI-5
aI-1
aI0
aI0
aI1
aI1
aI0
aI1
aI0
aI0
aI2
aI4
aI3
aI4
aI3
aI4
aI5
aI4
aI3
aI6
aI4
aI4
aI6
aI-1
aI6
aI4
aI5
aI5
aI-3
aI-3
aI-3
aI-3
aI-3
aI-3
aI1
aI1
aI1
aI1
aI1
aI1
aI1
aI7
aI-9
aI3
aI8
aI6
aI5
aI3
aI1
aI3
aI7
aI1
aI6
aI-1
aI1
aI1
aI0
aI1
aI-8
aI-5
aI-3
aI-1
aI-8
aI-5
aI-11
aI0
aI0
aI0
aI2
aI2
aI-1
aI1
aI-1
aI-2
aI1
aI2
aI2
aI5
aI3
aI3
aI4
aI4
aI3
aI6
aI4
aI4
aI4
aI1
aI5
aI4
aI5
aI5
aI-3
aI-3
aI-3
aI-3
aI-3
aI-3
aI1
aI1
aI1
aI1
aI1
aI1
aI1
aI11
aI1
aI1
aI9
aI5
aI6
aI2
aI10
aI7
aI11
aI5
aI1
aI-5
aI5
aI0
aI-3
aI-5
aI-7
aI0
aI-6
aI0
aI-9
aI3
aI-4
aI0
aI1
aI1
aI1
aI2
aI-1
aI1
aI-1
aI-2
aI10
aI2
aI2
aI2
aI2
aI2
aI4
aI3
aI10
aI4
aI5
aI3
aI3
aI1
aI-3
aI-4
aI5
aI5
aI-3
aI-3
aI-3
aI-3
aI-3
aI-3
aI1
aI1
aI1
aI1
aI1
aI1
aI1
aI14
aI8
aI3
aI9
aI5
aI5
aI6
aI5
aI7
aI10
aI7
aI1
aI1
aI2
aI-2
aI-5
aI-3
aI-10
aI-6
aI-4
aI-17
aI-12
aI-1
aI-6
aI-2
aI1
aI1
aI1
aI1
aI0
aI1
aI-2
aI0
aI13
aI2
aI2
aI2
aI2
aI-3
aI3
aI-2
aI14
aI7
aI9
aI5
aI5
aI1
aI-3
aI-4
aI5
aI5
aI-3
aI-3
aI-3
aI-3
aI-3
aI-3
aI5
aI5
aI1
aI1
aI1
aI1
aI1
aI14
aI2
aI0
aI4
aI1
aI8
aI2
aI2
aI2
aI9
aI4
aI0
aI-1
aI2
aI3
aI-5
aI-2
aI-6
aI-1
aI2
aI-10
aI-10
aI-2
aI-6
aI-2
aI-1
aI-1
aI1
aI1
aI-1
aI1
aI0
aI-1
aI15
aI2
aI2
aI2
aI2
aI4
aI-3
aI3
aI11
aI11
aI6
aI6
aI8
aI4
aI3
aI7
aI5
aI5
aI-3
aI-3
aI-3
aI-3
aI-3
aI-3
aI1
aI1
aI1
aI1
aI1
aI1
aI1
aI19
aI0
aI0
aI2
aI2
aI4
aI0
aI4
aI2
aI8
aI5
aI1
aI5
aI3
aI-7
aI-7
aI0
aI-5
aI-2
aI-2
aI-11
aI-7
aI-1
aI-2
aI-2
aI-1
aI-1
aI1
aI1
aI-1
aI1
aI-1
aI1
aI17
aI2
aI5
aI2
aI2
aI4
aI5
aI3
aI11
aI11
aI6
aI-2
aI8
aI4
aI3
aI3
aI1
aI1
aI-3
aI-3
aI-3
aI-3
aI-3
aI-3
aI1
aI1
aI1
aI1
aI1
aI1
aI1
aI18
aI0
aI2
aI1
aI0
aI4
aI0
aI2
aI3
aI9
aI1
aI3
aI4
aI2
aI-6
aI-12
aI-11
aI-2
aI-2
aI-1
aI-14
aI-16
aI-2
aI-2
aI-2
aI-1
aI-1
aI2
aI1
aI-1
aI1
aI-2
aI-1
aI17
aI2
aI5
aI-4
aI2
aI4
aI4
aI3
aI11
aI7
aI4
aI-2
aI8
aI4
aI3
aI3
aI2
aI2
aI-2
aI-3
aI-6
aI-6
aI-6
aI-6
aI1
aI1
aI1
aI1
aI3
aI2
aI2
aI16
aI0
aI0
aI5
aI4
aI4
aI2
aI1
aI4
aI3
aI0
aI0
aI1
aI-6
aI3
aI-2
aI-2
aI-6
aI-6
aI-2
aI2
aI-2
aI1
aI-8
aI-2
aI-1
aI-1
aI1
aI1
aI-1
aI1
aI-2
aI0
aI18
aI2
aI5
aI-4
aI2
aI4
aI4
aI3
aI7
aI5
aI4
aI-2
aI11
aI4
aI6
aI3
aI-2
aI-4
aI-2
aI-2
aI-3
aI-3
aI-3
aI-2
aI0
aI-5
aI-7
aI-2
aI-2
aI-3
aI-3
aI4
aI1
aI1
aI8
aI4
aI10
aI8
aI6
aI7
aI1
aI0
aI-1
aI-2
aI-1
aI4
aI2
aI0
aI-7
aI-2
aI5
aI0
aI-2
aI1
aI0
aI2
aI0
aI-1
aI1
aI1
aI-1
aI3
aI1
aI-1
aI10
aI-1
aI-1
aI4
aI-11
aI1
aI6
aI10
aI9
aI13
aI3
aI-3
aI-7
aI-3
aI-8
aI-3
aI-2
aI-2
aI-2
aI-2
aI-3
aI-3
aI-3
aI-2
aI-4
aI-5
aI-7
aI-2
aI-3
aI-3
aI-3
aI-5
aI4
aI4
aI7
aI3
aI5
aI6
aI9
aI7
aI6
aI6
aI4
aI2
aI0
aI2
aI2
aI-2
aI0
aI-1
aI5
aI-2
aI-2
aI-2
aI0
aI2
aI0
aI0
aI2
aI2
aI0
aI2
aI-2
aI-2
aI11
aI-6
aI-3
aI-3
aI-6
aI-7
aI-6
aI-3
aI1
aI1
aI-3
aI-3
aI-7
aI-4
aI-6
aI-1
aI2
aI2
aI-2
aI-2
aI-2
aI-2
aI-1
aI-1
aI-1
aI-2
aI-7
aI-2
aI-2
aI-2
aI-2
aI-3
aI8
aI7
aI5
aI4
aI12
aI6
aI9
aI8
aI2
aI6
aI7
aI7
aI4
aI1
aI7
aI-1
aI-4
aI-2
aI8
aI-2
aI-2
aI-2
aI0
aI2
aI0
aI0
aI2
aI2
aI0
aI3
aI-1
aI-1
aI17
aI-3
aI-3
aI-3
aI-6
aI-7
aI-4
aI-3
aI1
aI1
aI-3
aI-3
aI-7
aI-4
aI-5
aI-5
aI2
aI2
aI1
aI-2
aI-2
aI-2
aI-1
aI2
aI3
aI3
aI-7
aI-2
aI-2
aI-2
aI-2
aI7
aI6
aI9
aI8
aI2
aI6
aI12
aI11
aI8
aI6
aI4
aI10
aI5
aI6
aI8
aI4
aI3
aI0
aI2
aI14
aI2
aI-2
aI2
aI1
aI-2
aI0
aI0
aI2
aI2
aI0
aI3
aI-2
aI4
aI11
aI-3
aI-6
aI-6
aI-6
aI-4
aI7
aI0
aI1
aI1
aI-3
aI-3
aI-4
aI-3
aI-5
aI-2
aI4
aI7
aI-2
aI-2
aI-2
aI-2
aI2
aI-1
aI7
aI-1
aI-5
aI0
aI0
aI0
aI0
aI-2
aI7
aI4
aI7
aI5
aI4
aI9
aI12
aI5
aI5
aI7
aI8
aI6
aI8
aI6
aI8
aI1
aI3
aI2
aI12
aI-2
aI-2
aI-2
aI-2
aI-2
aI0
aI0
aI2
aI2
aI0
aI3
aI-2
aI2
aI6
aI-7
aI-6
aI-6
aI-3
aI-3
aI10
aI-3
aI1
aI1
aI1
aI1
aI-3
aI0
aI-4
aI-7
aI4
aI4
aI-2
aI-2
aI-2
aI-2
aI-1
aI-1
aI-1
aI-1
aI-5
aI-5
aI0
aI-3
aI-3
aI-17
aI4
aI1
aI8
aI6
aI5
aI9
aI6
aI2
aI2
aI13
aI6
aI-1
aI4
aI5
aI8
aI2
aI-2
aI4
aI12
aI4
aI3
aI-2
aI-7
aI-2
aI-2
aI0
aI2
aI5
aI0
aI4
aI-1
aI-1
aI0
aI-7
aI-6
aI-3
aI-3
aI-3
aI-8
aI-6
aI1
aI1
aI1
aI3
aI-4
aI-3
aI-7
aI-7
aI3
aI3
aI-3
aI-3
aI-2
aI-2
aI-8
aI-8
aI-4
aI-4
aI-2
aI-7
aI-7
aI-3
aI-3
aI-40
aI-3
aI-3
aI0
aI2
aI0
aI4
aI7
aI2
aI2
aI-9
aI5
aI3
aI1
aI10
aI9
aI-6
aI1
aI-7
aI5
aI5
aI2
aI-7
aI-2
aI-2
aI0
aI3
aI2
aI6
aI0
aI2
aI-1
aI-2
aI0
aI-4
aI-3
aI-3
aI-3
aI-4
aI-10
aI-1
aI4
aI4
aI-1
aI5
aI-7
aI-3
aI-3
aI-3
aI3
aI3
aI-3
aI-3
aI-2
aI-2
aI-8
aI-8
aI-8
aI-4
aI-2
aI-2
aI-2
aI-3
aI-3
aI-30
aI-1
aI1
aI3
aI1
aI2
aI2
aI-1
aI-8
aI-18
aI-9
aI-9
aI-13
aI2
aI10
aI3
aI-1
aI11
aI-1
aI-6
aI7
aI-2
aI-2
aI-2
aI-2
aI0
aI1
aI6
aI5
aI1
aI2
aI-1
aI-6
aI-3
aI-4
aI-3
aI-6
aI-3
aI-4
aI-3
aI2
aI4
aI-1
aI1
aI1
aI-3
aI-3
aI-3
aI-3
aI1
aI1
aI-3
aI-3
aI-2
aI-2
aI-4
aI-3
aI-2
aI-9
aI-2
aI-3
aI-3
aI-3
aI-3
aI-42
aI3
aI0
aI7
aI-6
aI-14
aI-1
aI-27
aI-16
aI-23
aI-22
aI-11
aI-16
aI-6
aI-10
aI-4
aI-18
aI-5
aI-5
aI-1
aI-16
aI2
aI-2
aI2
aI-2
aI0
aI0
aI2
aI2
aI1
aI3
aI-4
aI-1
aI-3
aI-3
aI-3
aI-8
aI-8
aI-3
aI-2
aI2
aI-2
aI-2
aI1
aI1
aI1
aI1
aI-3
aI-3
aI1
aI1
aI-3
aI-3
aI-2
aI-1
aI-4
aI-4
aI0
aI-12
aI-2
aI-3
aI-3
aI-3
aI-3
aI-12
aI1
aI-1
aI-1
aI1
aI-2
aI-4
aI-12
aI-11
aI-24
aI-36
aI-15
aI-14
aI-1
aI2
aI5
aI-8
aI-2
aI-11
aI-7
aI1
aI-2
aI-2
aI2
aI-2
aI0
aI4
aI2
aI3
aI0
aI3
aI0
aI-6
aI5
aI-8
aI-8
aI-2
aI-1
aI-3
aI-2
aI-2
aI-2
aI-2
aI1
aI1
aI1
aI1
aI0
aI-3
aI1
aI1
aI-5
aI-5
aI-2
aI-2
aI-4
aI-5
aI-5
aI-12
aI-3
aI-3
aI-3
aI-3
aI-3
aI-14
aI1
aI-3
aI1
aI2
aI-2
aI-9
aI-7
aI-14
aI-13
aI-11
aI-21
aI-21
aI-6
aI-1
aI-3
aI-9
aI-7
aI-2
aI-2
aI-5
aI-2
aI3
aI-2
aI-2
aI0
aI0
aI5
aI6
aI7
aI0
aI2
aI2
aI0
aI-3
aI-3
aI-7
aI-5
aI-5
aI-5
aI-4
aI0
aI0
aI6
aI4
aI4
aI0
aI-7
aI-4
aI1
aI4
aI-5
aI-4
aI-2
aI-2
aI-2
aI-5
aI0
aI-11
aI-3
aI-3
aI-3
aI-3
aI-3
aI-8
aI-3
aI-8
aI1
aI-1
aI-8
aI-13
aI-4
aI-7
aI-10
aI-2
aI-16
aI-2
aI-5
aI1
aI0
aI-13
aI-1
aI-7
aI7
aI-1
aI4
aI1
aI-2
aI-1
aI1
aI0
aI5
aI3
aI-5
aI2
aI-1
aI-1
aI-15
aI-7
aI-7
aI-7
aI-7
aI-2
aI-4
aI-4
aI0
aI0
aI6
aI3
aI1
aI1
aI-3
aI-3
aI1
aI1
aI-2
aI-4
aI-2
aI-3
aI-5
aI-2
aI-10
aI-7
aI-3
aI-3
aI-3
aI-3
aI-3
aI5
aI-5
aI-7
aI-2
aI-6
aI-9
aI-7
aI-6
aI0
aI-14
aI-8
aI-29
aI-21
aI-11
aI-3
aI-3
aI-11
aI-1
aI-7
aI1
aI-3
aI1
aI2
aI1
aI-2
aI1
aI0
aI2
aI6
aI-4
aI3
aI-1
aI2
aI-25
aI-8
aI-8
aI-8
aI-4
aI1
aI-4
aI-4
aI0
aI0
aI5
aI2
aI0
aI0
aI-4
aI-4
aI1
aI1
aI-5
aI-4
aI-2
aI-5
aI-5
aI-5
aI-5
aI-3
aI-3
aI-3
aI-3
aI-3
aI-3
aI4
aI1
aI1
aI7
aI-6
aI-14
aI-12
aI-8
aI-9
aI-10
aI-5
aI-29
aI-15
aI-5
aI-1
aI5
aI-15
aI-2
aI1
aI-2
aI5
aI-2
aI3
aI-2
aI-2
aI1
aI3
aI2
aI3
aI-5
aI3
aI1
aI-2
aI-12
aI-8
aI-8
aI-8
aI-1
aI-6
aI2
aI0
aI0
aI0
aI2
aI-2
aI-3
aI-3
aI-7
aI-7
aI-3
aI-3
aI-5
aI-4
aI-2
aI-5
aI-5
aI-5
aI-5
aI-1
aI-3
aI-3
aI-3
aI-3
aI-3
aI2
aI2
aI2
aI5
aI4
aI1
aI1
aI-8
aI-6
aI-2
aI-5
aI-16
aI-3
aI3
aI11
aI4
aI-9
aI-2
aI-3
aI-2
aI-2
aI-2
aI2
aI-2
aI-2
aI1
aI3
aI2
aI2
aI-5
aI3
aI-2
aI-8
aI-6
aI-8
aI-3
aI-3
aI0
aI-5
aI3
aI1
aI0
aI0
aI3
aI3
aI-3
aI-3
aI-7
aI-7
aI-12
aI-15
aI-11
aI-6
aI-3
aI-9
aI-8
aI-8
aI-6
aI-1
aI-7
aI-8
aI-8
aI-8
aI-8
aI3
aI-2
aI0
aI0
aI-12
aI-9
aI-3
aI0
aI1
aI5
aI-2
aI-20
aI-20
aI-1
aI-3
aI3
aI-3
aI2
aI-1
aI0
aI-2
aI2
aI2
aI-2
aI-2
aI3
aI5
aI2
aI1
aI2
aI0
aI-1
aI1
aI-7
aI-9
aI-4
aI-1
aI-1
aI-6
aI2
aI0
aI-1
aI3
aI6
aI3
aI-3
aI-4
aI-8
aI-8
aI-2
aI-2
aI-1
aI-4
aI-2
aI0
aI-1
aI0
aI0
aI0
aI2
aI-3
aI-6
aI-6
aI-6
aI3
aI3
aI-3
aI-6
aI-7
aI0
aI-4
aI-5
aI2
aI-2
aI-1
aI-5
aI-2
aI-3
aI-4
aI0
aI2
aI1
aI2
aI2
aI-2
aI3
aI2
aI1
aI-1
aI-1
aI0
aI-1
aI-4
aI-7
aI-1
aI-1
aI0
aI-21
aI-11
aI-8
aI-8
aI-6
aI-6
aI-2
aI4
aI4
aI4
aI2
aI2
aI-1
aI-6
aI-10
aI-6
aI2
aI2
aI2
aI-4
aI1
aI2
aI2
aI2
aI2
aI-3
aI2
aI2
aI2
aI2
aI2
aI0
aI0
aI0
aI-5
aI2
aI1
aI-4
aI1
aI-9
aI-2
aI-7
aI0
aI-4
aI4
aI-2
aI-7
aI-1
aI-2
aI5
aI3
aI-1
aI3
aI3
aI-5
aI0
aI-6
aI-5
aI-1
aI-5
aI-8
aI-2
aI5
aI-13
aI6
aI-2
aI-2
aI-2
aI-2
aI-2
aI-2
aI0
aI0
aI0
aI-2
aI-2
aI-2
aI-2
aI-2
aI-2
aI2
aI2
aI2
aI-4
aI1
aI2
aI2
aI2
aI2
aI0
aI2
aI2
aI2
aI2
aI2
aI1
aI-1
aI-4
aI-6
aI-1
aI-5
aI-3
aI-5
aI-7
aI-6
aI-5
aI-1
aI2
aI1
aI1
aI3
aI1
aI0
aI-1
aI2
aI5
aI-6
aI-2
aI-2
aI-6
aI-6
aI-4
aI-15
aI-10
aI-10
aI-6
aI-10
aI0
aI6
aI-2
aI-2
aI-2
aI-2
aI-2
aI-2
aI0
aI0
aI0
aI-2
aI-2
aI-2
aI-2
aI-2
aI-2
aI2
aI2
aI2
aI-4
aI1
aI5
aI2
aI2
aI-2
aI1
aI2
aI2
aI2
aI2
aI2
aI-1
aI1
aI2
aI-4
aI-3
aI-1
aI3
aI-3
aI-6
aI-1
aI-7
aI-6
aI-11
aI-4
aI-5
aI-2
aI-1
aI4
aI7
aI1
aI-7
aI3
aI0
aI-7
aI-4
aI-4
aI-9
aI-11
aI-5
aI-5
aI-4
aI-4
aI-4
aI-6
aI-2
aI-2
aI-2
aI-2
aI-2
aI-2
aI-2
aI0
aI0
aI-2
aI-2
aI-2
aI-2
aI-2
aI-2
aI2
aI2
aI2
aI-4
aI1
aI1
aI2
aI2
aI3
aI3
aI2
aI2
aI2
aI2
aI2
aI2
aI-3
aI5
aI-7
aI1
aI2
aI-3
aI-1
aI2
aI-1
aI-1
aI-5
aI-5
aI-7
aI-3
aI-3
aI-6
aI-4
aI2
aI-6
aI-6
aI-5
aI-11
aI-2
aI1
aI-13
aI-11
aI-7
aI-3
aI-5
aI-1
aI-12
aI2
aI-8
aI-2
aI-2
aI-2
aI-2
aI-2
aI-2
aI-2
aI0
aI0
aI-2
aI-2
aI-2
aI-2
aI-2
aI-2
aI2
aI2
aI2
aI2
aI-1
aI1
aI2
aI3
aI0
aI2
aI2
aI2
aI2
aI2
aI2
aI3
aI-4
aI-4
aI-7
aI4
aI-1
aI-7
aI7
aI6
aI6
aI-1
aI-1
aI-1
aI-1
aI-1
aI-6
aI-2
aI-2
aI-7
aI-6
aI-1
aI3
aI-6
aI-9
aI-11
aI-5
aI1
aI-8
aI-5
aI-14
aI4
aI-1
aI-2
aI0
aI-2
aI-2
aI-2
aI-2
aI-2
aI-2
aI0
aI0
aI0
aI-2
aI-2
aI-2
aI-2
aI-2
aI-2
aI2
aI2
aI5
aI5
aI-1
aI1
aI3
aI3
aI-1
aI6
aI2
aI2
aI2
aI2
aI2
aI16
aI-6
aI-7
aI-5
aI0
aI-5
aI1
aI7
aI1
aI9
aI-1
aI-1
aI-6
aI-1
aI-6
aI-1
aI-2
aI-2
aI-7
aI-4
aI-4
aI-11
aI-5
aI-4
aI1
aI-13
aI-24
aI-3
aI-6
aI2
aI1
aI6
aI1
aI-2
aI-2
aI-2
aI-2
aI-2
aI-2
aI-2
aI0
aI0
aI0
aI-2
aI-2
aI-2
aI-2
aI-2
aI-2
aI2
aI2
aI5
aI5
aI0
aI1
aI3
aI-1
aI-2
aI4
aI2
aI2
aI2
aI2
aI2
aI8
aI-6
aI-4
aI7
aI0
aI2
aI6
aI-7
aI11
aI5
aI9
aI5
aI1
aI1
aI-1
aI2
aI-1
aI-7
aI-11
aI-2
aI-8
aI7
aI-3
aI-9
aI-1
aI-11
aI-2
aI-9
aI1
aI-3
aI-4
aI4
aI-1
aI3
aI-2
aI-2
aI-2
aI-2
aI-2
aI-2
aI0
aI0
aI0
aI-2
aI-2
aI-2
aI-2
aI-2
aI-2
aI5
aI5
aI5
aI5
aI0
aI2
aI-1
aI-1
aI-3
aI-2
aI2
aI2
aI2
aI2
aI2
aI15
aI-2
aI2
aI4
aI6
aI0
aI19
aI9
aI4
aI-2
aI10
aI-11
aI-2
aI-2
aI0
aI6
aI-15
aI9
aI10
aI7
aI6
aI8
aI-4
aI0
aI-5
aI0
aI15
aI-7
aI5
aI0
aI-1
aI0
aI-1
aI6
aI-2
aI-2
aI-2
aI-2
aI-2
aI0
aI0
aI0
aI0
aI-2
aI-2
aI-2
aI-1
aI-1
aI-1
aI5
aI5
aI5
aI5
aI0
aI0
aI-1
aI-1
aI-3
aI-3
aI2
aI2
aI2
aI2
aI2
aI4
aI-2
aI1
aI5
aI8
aI9
aI13
aI11
aI0
aI3
aI8
aI-7
aI-20
aI-4
aI0
aI-4
aI-21
aI24
aI-2
aI5
aI-1
aI1
aI-2
aI-3
aI-1
aI9
aI4
aI0
aI10
aI3
aI-4
aI-5
aI-6
aI5
aI-2
aI-2
aI-2
aI-2
aI-2
aI0
aI0
aI0
aI0
aI-2
aI-2
aI-2
aI-2
aI-1
aI-1
aI-1
aI-1
aI0
aI0
aI1
aI1
aI0
aI0
aI0
aI0
aI0
aI-1
aI-1
aI2
aI2
aI-10
aI2
aI11
aI13
aI-1
aI7
aI3
aI10
aI-6
aI-12
aI0
aI-6
aI-7
aI-6
aI-7
aI-9
aI-11
aI10
aI-4
aI1
aI-6
aI-8
aI3
aI14
aI19
aI22
aI19
aI14
aI6
aI9
aI2
aI8
aI4
aI-1
aI-2
aI-2
aI-2
aI-2
aI-2
aI0
aI0
aI0
aI0
aI-2
aI-2
aI-2
aI-2
aI-2
aI-2
aI-1
aI-1
aI0
aI0
aI0
aI1
aI0
aI0
aI0
aI0
aI0
aI0
aI-1
aI-1
aI-1
aI-5
aI0
aI0
aI7
aI-3
aI4
aI1
aI12
aI14
aI10
aI-7
aI-11
aI-9
aI-11
aI-7
aI-13
aI3
aI6
aI5
aI-5
aI3
aI-10
aI4
aI16
aI4
aI4
aI14
aI7
aI5
aI4
aI-1
aI-2
aI5
aI-7
aI-2
aI-2
aI-2
aI-2
aI-2
aI0
aI0
aI0
aI0
aI-2
aI-2
aI-2
aI-2
aI-2
aI-2
aI-4
aI-4
aI-1
aI-1
aI0
aI1
aI0
aI0
aI0
aI0
aI-3
aI-3
aI-2
aI-2
aI-2
aI0
aI-2
aI3
aI1
aI16
aI11
aI14
aI3
aI1
aI-3
aI5
aI-11
aI-16
aI0
aI1
aI4
aI18
aI13
aI15
aI13
aI26
aI15
aI3
aI6
aI12
aI11
aI9
aI0
aI-3
aI-12
aI-5
aI6
aI6
aI-28
aI-2
aI-2
aI-2
aI-2
aI-2
aI0
aI0
aI0
aI0
aI-2
aI-2
aI-2
aI-2
aI-2
aI-2
aI-4
aI-4
aI-1
aI-1
aI0
aI1
aI1
aI0
aI0
aI0
aI-3
aI-1
aI-2
aI-2
aI-2
aI-7
aI0
aI-3
aI-4
aI0
aI9
aI13
aI-2
aI-2
aI-8
aI-6
aI-13
aI-15
aI2
aI-5
aI6
aI9
aI12
aI13
aI16
aI13
aI17
aI17
aI17
aI20
aI16
aI9
aI-6
aI5
aI-8
aI-8
aI-2
aI-8
aI-15
aI-2
aI-2
aI-2
aI-2
aI-2
aI0
aI0
aI0
aI0
aI-2
aI-2
aI-2
aI-2
aI-2
aI-2
aI-4
aI-4
aI-1
aI-1
aI5
aI5
aI6
aI6
aI-3
aI-3
aI-1
aI-1
aI2
aI2
aI2
aI-4
aI-6
aI-5
aI1
aI2
aI-4
aI1
aI3
aI-3
aI-12
aI-13
aI-15
aI-17
aI-2
aI-13
aI5
aI10
aI7
aI-2
aI0
aI-16
aI2
aI2
aI17
aI17
aI7
aI-7
aI-6
aI-13
aI-14
aI-3
aI-7
aI-15
aI-23
aI-2
aI-1
aI-2
aI-2
aI-2
aI0
aI0
aI0
aI0
aI-2
aI-2
aI-2
aI-2
aI-2
aI-2
aI-4
aI-4
aI-1
aI-1
aI5
aI5
aI6
aI6
aI-3
aI-3
aI-1
aI-1
aI2
aI2
aI2
aI3
aI-9
aI-11
aI-3
aI-1
aI-4
aI-6
aI3
aI-2
aI-11
aI-13
aI-15
aI-17
aI-7
aI-9
aI4
aI24
aI2
aI-2
aI-4
aI-16
aI-5
aI2
aI18
aI17
aI8
aI-6
aI-6
aI-13
aI-4
aI-3
aI-5
aI-9
aI-20
aI-2
aI-2
aI-2
aI-2
aI-2
aI0
aI0
aI0
aI0
aI-2
aI-2
aI-2
aI-2
aI-2
aI-2
asbasg13
I4096
sS'n'
p52
I10
sb.